
sun2-multi-rev-R.bin:     file format binary


Disassembly of section .data:

00ef0000 <.data>:
  ef0000:	0000 1000      	orib #0,%d0
  ef0004:	00ef           	0357
  ef0006:	00d0           	0320
  ef0008:	00ef           	0357
  ef000a:	6b8c           	bmis 0xeeff98
  ef000c:	00ef           	0357
  ef000e:	00c8           	0310
  ef0010:	0000 0488      	orib #-120,%d0
  ef0014:	00ef           	0357
  ef0016:	222c 00ef      	movel %a4@(239),%d1
  ef001a:	2194 00ef      	movel %a4@,%a0@(ffffffef,%d0:w)
  ef001e:	225e           	moveal %fp@+,%a1
  ef0020:	00ef           	0357
  ef0022:	21c2 0000      	movel %d2,0x0
  ef0026:	05b7 0000      	bclr %d2,%sp@(00000000,%d0:w)
  ef002a:	05b4 0000      	bclr %d2,%a4@(00000000,%d0:w)
  ef002e:	05b5 00ef      	bclr %d2,%a5@(ffffffef,%d0:w)
  ef0032:	24fc 00ef 24b0 	movel #15672496,%a2@+
  ef0038:	0000 059e      	orib #-98,%d0
  ef003c:	0000 0531      	orib #49,%d0
	...
  ef0048:	0000 0532      	orib #50,%d0
  ef004c:	00ef           	0357
  ef004e:	6b8c           	bmis 0xeeffdc
  ef0050:	00ef           	0357
  ef0052:	3238 0000      	movew 0x0,%d1
  ef0056:	05fc           	02774
  ef0058:	0000 064c      	orib #76,%d0
  ef005c:	00ef           	0357
  ef005e:	324c           	moveaw %a4,%a1
  ef0060:	00ef           	0357
  ef0062:	19a6 0000      	moveb %fp@-,%a4@(00000000,%d0:w)
  ef0066:	04d0 0000      	cmp2l %a0@,%d0
  ef006a:	0522           	btst %d2,%a2@-
  ef006c:	0000 0526      	orib #38,%d0
  ef0070:	00ef           	0357
  ef0072:	1ee8 00ef      	moveb %a0@(239),%sp@+
  ef0076:	1f86 00ef      	moveb %d6,%sp@(ffffffef,%d0:w)
  ef007a:	1fb2 0000 05b8 	moveb %a2@(00000000,%d0:w),@(00ef1fc8,%d0:w:4)
  ef0080:	00ef 1fc8 
  ef0084:	00ef           	0357
  ef0086:	205c           	moveal %a4@+,%a0
  ef0088:	00ef           	0357
  ef008a:	2148 0000      	movel %a0,%a0@(0)
  ef008e:	0482 00ef 04d6 	subil #15664342,%d2
  ef0094:	00ef           	0357
  ef0096:	038e 00ef      	movepw %d1,%fp@(239)
  ef009a:	0452 0000      	subiw #0,%a2@
  ef009e:	0484 00ef 00cc 	subil #15663308,%d4
  ef00a4:	0000 0000      	orib #0,%d0
  ef00a8:	0000 0400      	orib #0,%d0
  ef00ac:	0000 052a      	orib #42,%d0
  ef00b0:	0000 05a2      	orib #-94,%d0
  ef00b4:	0000 05aa      	orib #-86,%d0
  ef00b8:	0000 0000      	orib #0,%d0
  ef00bc:	0000 05ba      	orib #-70,%d0
  ef00c0:	0000 05c2      	orib #-62,%d0
  ef00c4:	00ef           	0357
  ef00c6:	0276 0000 2000 	andiw #0,%fp@(00000000,%d2:w)
  ef00cc:	0000 0002      	orib #2,%d0

  ef00d0:	3e7c 0003      	moveaw #3,%sp
  ef00d4:	4e7b f001      	movec %sp,%dfc
  ef00d8:	4e7b f000      	movec %sp,%sfc
  ef00dc:	9fcf           	subal %sp,%sp
  ef00de:	0e78 f800 0006 	movesw %sp,0x6
  ef00e4:	0e38 f800 0005 	movesb %sp,0x5
  ef00ea:	0e78 f000 000c 	movesw 0xc,%sp
  ef00f0:	3e7c 0001      	moveaw #1,%sp
  ef00f4:	0e78 f800 000e 	movesw %sp,0xe
  ef00fa:	2e40           	moveal %d0,%sp
  ef00fc:	70fe           	moveq #-2,%d0
  ef00fe:	0e38 0800 000b 	movesb %d0,0xb
  ef0104:	200f           	movel %sp,%d0
  ef0106:	2e7c ec40 0005 	moveal #-331350011,%sp
  ef010c:	0eb8 f800 0000 	movesl %sp,0x0
  ef0112:	31fc ffef 0002 	movew #-17,0x2
  ef0118:	31fc ff01 0002 	movew #-255,0x2
  ef011e:	0c78 0b00 0000 	cmpiw #2816,0x0
  ef0124:	6700 008c      	beqw 0xef01b2
  ef0128:	31fc ff01 0002 	movew #-255,0x2
  ef012e:	31fc 0b00 0000 	movew #2816,0x0
  ef0134:	2e7c fe00 0000 	moveal #-33554432,%sp
  ef013a:	0eb8 f800 0000 	movesl %sp,0x0
  ef0140:	2e7c fe00 0001 	moveal #-33554431,%sp
  ef0146:	0eb8 f800 0800 	movesl %sp,0x800
  ef014c:	3e7c 1000      	moveaw #4096,%sp
  ef0150:	48e7 ffff      	moveml %d0-%sp,%sp@-
  ef0154:	4e68           	movel %usp,%a0
  ef0156:	2f48 003c      	movel %a0,%sp@(60)
  ef015a:	2078 05ba      	moveal 0x5ba,%a0
  ef015e:	2008           	movel %a0,%d0
  ef0160:	2438 05be      	movel 0x5be,%d2
  ef0164:	b580           	eorl %d2,%d0
  ef0166:	21c8 05be      	movel %a0,0x5be
  ef016a:	5280           	addql #1,%d0
  ef016c:	6644           	bnes 0xef01b2
  ef016e:	2238 05c2      	movel 0x5c2,%d1
  ef0172:	2001           	movel %d1,%d0
  ef0174:	2438 05c6      	movel 0x5c6,%d2
  ef0178:	b580           	eorl %d2,%d0
  ef017a:	5280           	addql #1,%d0
  ef017c:	6634           	bnes 0xef01b2
  ef017e:	70fd           	moveq #-3,%d0
  ef0180:	0e38 0800 000b 	movesb %d0,0xb
  ef0186:	2008           	movel %a0,%d0
  ef0188:	0240 f800      	andiw #-2048,%d0
  ef018c:	2240           	moveal %d0,%a1
  ef018e:	203c fe40 0000 	movel #-29360128,%d0
  ef0194:	0eb8 0800 0000 	movesl %d0,0x0
  ef019a:	4ef9 0000 01a0 	jmp 0x1a0
  ef01a0:	303c 0081      	movew #129,%d0
  ef01a4:	0e78 0800 000e 	movesw %d0,0xe
  ef01aa:	0ea9 1800 0000 	movesl %d1,%a1@(0)
  ef01b0:	4ed0           	jmp %a0@
  ef01b2:	4efa 09ac      	jmp %pc@(0xef0b60)
  ef01b6:	31fc 0000 0ffa 	movew #0,0xffa
  ef01bc:	9fcf           	subal %sp,%sp
  ef01be:	3efc ffff      	movew #-1,%sp@+
  ef01c2:	befc 0ffa      	cmpaw #4090,%sp
  ef01c6:	66f6           	bnes 0xef01be
  ef01c8:	48f8 ffff 0490 	moveml %d0-%sp,0x490
  ef01ce:	21ce 0488      	movel %fp,0x488
  ef01d2:	700e           	moveq #14,%d0
  ef01d4:	11c0 0482      	moveb %d0,0x482
  ef01d8:	0e38 0800 000b 	movesb %d0,0xb
  ef01de:	4ff8 1000      	lea 0x1000,%sp
  ef01e2:	70ff           	moveq #-1,%d0
  ef01e4:	2238 0488      	movel 0x488,%d1
  ef01e8:	928f           	subl %sp,%d1
  ef01ea:	e481           	asrl #2,%d1
  ef01ec:	6002           	bras 0xef01f0
  ef01ee:	2ec0           	movel %d0,%sp@+
  ef01f0:	51c9 fffc      	dbf %d1,0xef01ee
  ef01f4:	4241           	clrw %d1
  ef01f6:	5381           	subql #1,%d1
  ef01f8:	64f4           	bccs 0xef01ee
  ef01fa:	4cf8 ffff 0490 	moveml 0x490,%d0-%sp
  ef0200:	3e7c 0003      	moveaw #3,%sp
  ef0204:	4e7b f001      	movec %sp,%dfc
  ef0208:	3e7c 0001      	moveaw #1,%sp
  ef020c:	31cf 0480      	movew %sp,0x480
  ef0210:	0e78 f800 000e 	movesw %sp,0xe
  ef0216:	21fc 00ef 0276 	movel #15663734,0xffc
  ef021c:	0ffc 
  ef021e:	4ff8 0ffa      	lea 0xffa,%sp
  ef0222:	4878 2000      	pea 0x2000
  ef0226:	40e7           	movew %sr,%sp@-
  ef0228:	9efc 005a      	subaw #90,%sp
  ef022c:	48ef ffff 0000 	moveml %d0-%sp,%sp@(0)
  ef0232:	2e0f           	movel %sp,%d7
  ef0234:	605c           	bras 0xef0292
  ef0236:	7003           	moveq #3,%d0
  ef0238:	4e7b 0001      	movec %d0,%dfc
  ef023c:	7001           	moveq #1,%d0
  ef023e:	0e78 0800 000e 	movesw %d0,0xe
  ef0244:	4ef9 00ef 024a 	jmp 0xef024a
  ef024a:	203c fe00 0000 	movel #-33554432,%d0
  ef0250:	0eb8 0800 0000 	movesl %d0,0x0
  ef0256:	4cdf ffff      	moveml %sp@+,%d0-%sp
  ef025a:	31fc 0003 0ffa 	movew #3,0xffa
  ef0260:	609e           	bras 0xef0200
  ef0262:	4e70           	reset
  ef0264:	31fc 0002 0ffa 	movew #2,0xffa
  ef026a:	6094           	bras 0xef0200
  ef026c:	4e70           	reset
  ef026e:	31fc 0001 0ffa 	movew #1,0xffa
  ef0274:	608a           	bras 0xef0200
  ef0276:	487a fffe      	pea %pc@(0xef0276)
  ef027a:	3f3c 00b8      	movew #184,%sp@-
  ef027e:	487a fff6      	pea %pc@(0xef0276)
  ef0282:	3f3c 2700      	movew #9984,%sp@-
  ef0286:	9efc 005a      	subaw #90,%sp
  ef028a:	48ef ffff 0000 	moveml %d0-%sp,%sp@(0)
  ef0290:	9e87           	subl %d7,%d7
  ef0292:	06af 0000 0062 	addil #98,%sp@(60)
  ef0298:	003c 
  ef029a:	4e7a 8800      	movec %usp,%a0
  ef029e:	2f48 0040      	movel %a0,%sp@(64)
  ef02a2:	4e7a 8000      	movec %sfc,%a0
  ef02a6:	4e7a 9001      	movec %dfc,%a1
  ef02aa:	4e7a a801      	movec %vbr,%a2
  ef02ae:	48ef 0700 0044 	moveml %a0-%a2,%sp@(68)
  ef02b4:	7003           	moveq #3,%d0
  ef02b6:	4e7b 0000      	movec %d0,%sfc
  ef02ba:	0e38 0000 0006 	movesb 0x6,%d0
  ef02c0:	0200 0007      	andib #7,%d0
  ef02c4:	2f40 0050      	movel %d0,%sp@(80)
  ef02c8:	0e38 0000 0007 	movesb 0x7,%d0
  ef02ce:	0200 0007      	andib #7,%d0
  ef02d2:	2f40 0054      	movel %d0,%sp@(84)
  ef02d6:	007c 0700      	oriw #1792,%sr
  ef02da:	4a87           	tstl %d7
  ef02dc:	6704           	beqs 0xef02e2
  ef02de:	4eba 0218      	jsr %pc@(0xef04f8)
  ef02e2:	4eba 110c      	jsr %pc@(0xef13f0)
  ef02e6:	206f 0040      	moveal %sp@(64),%a0
  ef02ea:	4e7b 8800      	movec %a0,%usp
  ef02ee:	7003           	moveq #3,%d0
  ef02f0:	4e7b 0001      	movec %d0,%dfc
  ef02f4:	202f 0050      	movel %sp@(80),%d0
  ef02f8:	0e38 0800 0006 	movesb %d0,0x6
  ef02fe:	202f 0054      	movel %sp@(84),%d0
  ef0302:	0e38 0800 0007 	movesb %d0,0x7
  ef0308:	202f 004c      	movel %sp@(76),%d0
  ef030c:	4e7b 0801      	movec %d0,%vbr
  ef0310:	202f 0044      	movel %sp@(68),%d0
  ef0314:	4e7b 0000      	movec %d0,%sfc
  ef0318:	202f 0048      	movel %sp@(72),%d0
  ef031c:	4e7b 0001      	movec %d0,%dfc
  ef0320:	206f 003c      	moveal %sp@(60),%a0
  ef0324:	212f 005e      	movel %sp@(94),%a0@-
  ef0328:	212f 005a      	movel %sp@(90),%a0@-
  ef032c:	2f48 003c      	movel %a0,%sp@(60)
  ef0330:	4cef ffff 0000 	moveml %sp@(0),%d0-%sp
  ef0336:	4e73           	rte
  ef0338:	48f8 ffff 043a 	moveml %d0-%sp,0x43a
  ef033e:	701c           	moveq #28,%d0
  ef0340:	41f8 0400      	lea 0x400,%a0
  ef0344:	224f           	moveal %sp,%a1
  ef0346:	30d9           	movew %a1@+,%a0@+
  ef0348:	51c8 fffc      	dbf %d0,0xef0346
  ef034c:	4e7a 8000      	movec %sfc,%a0
  ef0350:	7003           	moveq #3,%d0
  ef0352:	4e7b 0000      	movec %d0,%sfc
  ef0356:	0e78 0000 000c 	movesw 0xc,%d0
  ef035c:	0e78 0800 000c 	movesw %d0,0xc
  ef0362:	31c0 047e      	movew %d0,0x47e
  ef0366:	4e7b 8000      	movec %a0,%sfc
  ef036a:	2f57 0032      	movel %sp@,%sp@(50)
  ef036e:	2f6f 0004 0036 	movel %sp@(4),%sp@(54)
  ef0374:	4fef 0032      	lea %sp@(50),%sp
  ef0378:	026f 0fff 0006 	andiw #4095,%sp@(6)
  ef037e:	2038 043a      	movel 0x43a,%d0
  ef0382:	2078 045a      	moveal 0x45a,%a0
  ef0386:	2278 045e      	moveal 0x45e,%a1
  ef038a:	6000 fefa      	braw 0xef0286
  ef038e:	33fc ffe1 00ee 	movew #-31,0xee0002
  ef0394:	0002 
  ef0396:	2f00           	movel %d0,%sp@-
  ef0398:	2f01           	movel %d1,%sp@-
  ef039a:	3038 0486      	movew 0x486,%d0
  ef039e:	06b8 0000 0019 	addil #25,0x484
  ef03a4:	0484 
  ef03a6:	3238 0486      	movew 0x486,%d1
  ef03aa:	b340           	eorw %d1,%d0
  ef03ac:	0800 0009      	btst #9,%d0
  ef03b0:	6720           	beqs 0xef03d2
  ef03b2:	4e7a 1001      	movec %dfc,%d1
  ef03b6:	7003           	moveq #3,%d0
  ef03b8:	4e7b 0001      	movec %d0,%dfc
  ef03bc:	1038 0482      	moveb 0x482,%d0
  ef03c0:	0a00 0008      	eorib #8,%d0
  ef03c4:	11c0 0482      	moveb %d0,0x482
  ef03c8:	0e38 0800 000b 	movesb %d0,0xb
  ef03ce:	4e7b 1001      	movec %d1,%dfc
  ef03d2:	2208           	movel %a0,%d1
  ef03d4:	2078 052a      	moveal 0x52a,%a0
  ef03d8:	4a28 0000      	tstb %a0@(0)
  ef03dc:	4e71           	nop
  ef03de:	4e71           	nop
  ef03e0:	7001           	moveq #1,%d0
  ef03e2:	c028 0000      	andb %a0@(0),%d0
  ef03e6:	6720           	beqs 0xef0408
  ef03e8:	4e71           	nop
  ef03ea:	4e71           	nop
  ef03ec:	1028 0002      	moveb %a0@(2),%d0
  ef03f0:	2041           	moveal %d1,%a0
  ef03f2:	48e7 00c0      	moveml %a0-%a1,%sp@-
  ef03f6:	2f00           	movel %d0,%sp@-
  ef03f8:	4eba 1fa6      	jsr %pc@(0xef23a0)
  ef03fc:	588f           	addql #4,%sp
  ef03fe:	4cdf 0300      	moveml %sp@+,%a0-%a1
  ef0402:	4a80           	tstl %d0
  ef0404:	67cc           	beqs 0xef03d2
  ef0406:	6046           	bras 0xef044e
  ef0408:	2041           	moveal %d1,%a0
  ef040a:	4e71           	nop
  ef040c:	4a38 05b4      	tstb 0x5b4
  ef0410:	6736           	beqs 0xef0448
  ef0412:	2208           	movel %a0,%d1
  ef0414:	2078 05ac      	moveal 0x5ac,%a0
  ef0418:	0c38 0001 05b4 	cmpib #1,0x5b4
  ef041e:	6604           	bnes 0xef0424
  ef0420:	d0fc 0004      	addaw #4,%a0
  ef0424:	4a28 0000      	tstb %a0@(0)
  ef0428:	4e71           	nop
  ef042a:	4e71           	nop
  ef042c:	117c 0010 0000 	moveb #16,%a0@(0)
  ef0432:	4e71           	nop
  ef0434:	7080           	moveq #-128,%d0
  ef0436:	c028 0000      	andb %a0@(0),%d0
  ef043a:	2041           	moveal %d1,%a0
  ef043c:	b038 05b6      	cmpb 0x5b6,%d0
  ef0440:	6706           	beqs 0xef0448
  ef0442:	11c0 05b6      	moveb %d0,0x5b6
  ef0446:	6706           	beqs 0xef044e
  ef0448:	221f           	movel %sp@+,%d1
  ef044a:	201f           	movel %sp@+,%d0
  ef044c:	4e73           	rte
  ef044e:	221f           	movel %sp@+,%d1
  ef0450:	201f           	movel %sp@+,%d0
  ef0452:	3f7c 0081 0006 	movew #129,%sp@(6)
  ef0458:	6000 fe2c      	braw 0xef0286
  ef045c:	7004           	moveq #4,%d0
  ef045e:	2078 052a      	moveal 0x52a,%a0
  ef0462:	4a28 0000      	tstb %a0@(0)
  ef0466:	4e71           	nop
  ef0468:	4e71           	nop
  ef046a:	c028 0000      	andb %a0@(0),%d0
  ef046e:	670a           	beqs 0xef047a
  ef0470:	4e71           	nop
  ef0472:	116f 0007 0002 	moveb %sp@(7),%a0@(2)
  ef0478:	7001           	moveq #1,%d0
  ef047a:	4e75           	rts
  ef047c:	7003           	moveq #3,%d0
  ef047e:	4e7b 0000      	movec %d0,%sfc
  ef0482:	4e7b 0001      	movec %d0,%dfc
  ef0486:	0e78 0000 000e 	movesw 0xe,%d0
  ef048c:	72ef           	moveq #-17,%d1
  ef048e:	c240           	andw %d0,%d1
  ef0490:	0e78 1800 000e 	movesw %d1,0xe
  ef0496:	31c1 0480      	movew %d1,0x480
  ef049a:	91c8           	subal %a0,%a0
  ef049c:	222f 0004      	movel %sp@(4),%d1
  ef04a0:	e481           	asrl #2,%d1
  ef04a2:	6002           	bras 0xef04a6
  ef04a4:	20d0           	movel %a0@,%a0@+
  ef04a6:	51c9 fffc      	dbf %d1,0xef04a4
  ef04aa:	4241           	clrw %d1
  ef04ac:	5381           	subql #1,%d1
  ef04ae:	64f4           	bccs 0xef04a4
  ef04b0:	31c0 0480      	movew %d0,0x480
  ef04b4:	0e78 0800 000e 	movesw %d0,0xe
  ef04ba:	4e75           	rts
  ef04bc:	302f 0006      	movew %sp@(6),%d0
  ef04c0:	4e7a 8001      	movec %dfc,%a0
  ef04c4:	7203           	moveq #3,%d1
  ef04c6:	4e7b 1001      	movec %d1,%dfc
  ef04ca:	0e78 0800 000e 	movesw %d0,0xe
  ef04d0:	4e7b 8001      	movec %a0,%dfc
  ef04d4:	4e75           	rts
  ef04d6:	4e7a 8001      	movec %dfc,%a0
  ef04da:	7203           	moveq #3,%d1
  ef04dc:	4e7b 1001      	movec %d1,%dfc
  ef04e0:	102f 0007      	moveb %sp@(7),%d0
  ef04e4:	11c0 0482      	moveb %d0,0x482
  ef04e8:	0e38 0800 000b 	movesb %d0,0xb
  ef04ee:	4e7b 8001      	movec %a0,%dfc
  ef04f2:	4e75           	rts
  ef04f4:	4e70           	reset
  ef04f6:	4e75           	rts
  ef04f8:	4e56 ffe0      	linkw %fp,#-32
  ef04fc:	48d7 3080      	moveml %d7/%a4-%a5,%sp@
  ef0500:	302e 0068      	movew %fp@(104),%d0
  ef0504:	48c0           	extl %d0
  ef0506:	7203           	moveq #3,%d1
  ef0508:	b081           	cmpl %d1,%d0
  ef050a:	661c           	bnes 0xef0528
  ef050c:	08f8 0007 0481 	bset #7,0x481
  ef0512:	08f8 0005 0481 	bset #5,0x481
  ef0518:	3f38 0480      	movew 0x480,%sp@-
  ef051c:	558f           	subql #2,%sp
  ef051e:	4eba ff9c      	jsr %pc@(0xef04bc)
  ef0522:	584f           	addqw #4,%sp
  ef0524:	6000 00a0      	braw 0xef05c6
  ef0528:	4878 000d      	pea 0xd
  ef052c:	4eba ffa8      	jsr %pc@(0xef04d6)
  ef0530:	584f           	addqw #4,%sp
  ef0532:	42ae 0058      	clrl %fp@(88)
  ef0536:	42ae 005c      	clrl %fp@(92)
  ef053a:	6100 03ca      	bsrw 0xef0906
  ef053e:	287c 0000 0400 	moveal #1024,%a4
  ef0544:	220c           	movel %a4,%d1
  ef0546:	6708           	beqs 0xef0550
  ef0548:	293c 00ef 0286 	movel #15663750,%a4@-
  ef054e:	60f4           	bras 0xef0544
  ef0550:	28fc 0000 0400 	movel #1024,%a4@+
  ef0556:	28fc 00ef 0000 	movel #15663104,%a4@+
  ef055c:	28fc 00ef 0338 	movel #15663928,%a4@+
  ef0562:	28fc 00ef 0338 	movel #15663928,%a4@+
  ef0568:	21fc 00ef 038e 	movel #15664014,0x7c
  ef056e:	007c 
  ef0570:	2a78 0488      	moveal 0x488,%a5
  ef0574:	bbfc 0060 0000 	cmpal #6291456,%a5
  ef057a:	6414           	bccs 0xef0590
  ef057c:	4879 8000 0000 	pea 0x80000000
  ef0582:	4855           	pea %a5@
  ef0584:	4eba 04ea      	jsr %pc@(0xef0a70)
  ef0588:	504f           	addqw #8,%sp
  ef058a:	4bed 0800      	lea %a5@(2048),%a5
  ef058e:	60e4           	bras 0xef0574
  ef0590:	302e 0068      	movew %fp@(104),%d0
  ef0594:	48c0           	extl %d0
  ef0596:	662e           	bnes 0xef05c6
  ef0598:	21fc 00ee c800 	movel #15648768,0x5ac
  ef059e:	05ac 
  ef05a0:	21fc 00ee c800 	movel #15648768,0x5b0
  ef05a6:	05b0 
  ef05a8:	4878 0001      	pea 0x1
  ef05ac:	4879 00ee c800 	pea 0xeec800
  ef05b2:	4eba 15b8      	jsr %pc@(0xef1b6c)
  ef05b6:	504f           	addqw #8,%sp
  ef05b8:	42a7           	clrl %sp@-
  ef05ba:	4879 00ee c804 	pea 0xeec804
  ef05c0:	4eba 15aa      	jsr %pc@(0xef1b6c)
  ef05c4:	504f           	addqw #8,%sp
  ef05c6:	4878 000c      	pea 0xc
  ef05ca:	4eba ff0a      	jsr %pc@(0xef04d6)
  ef05ce:	584f           	addqw #4,%sp
  ef05d0:	21fc 00ec 0000 	movel #15466496,0x5fc
  ef05d6:	05fc 
  ef05d8:	6100 03ea      	bsrw 0xef09c4
  ef05dc:	11c0 05b8      	moveb %d0,0x5b8
  ef05e0:	21fc 0000 1000 	movel #4096,0x64c
  ef05e6:	064c 
  ef05e8:	302e 0068      	movew %fp@(104),%d0
  ef05ec:	48c0           	extl %d0
  ef05ee:	6632           	bnes 0xef0622
  ef05f0:	4a38 05b8      	tstb 0x5b8
  ef05f4:	6720           	beqs 0xef0616
  ef05f6:	42a7           	clrl %sp@-
  ef05f8:	42a7           	clrl %sp@-
  ef05fa:	4eba 2b24      	jsr %pc@(0xef3120)
  ef05fe:	504f           	addqw #8,%sp
  ef0600:	4238 05b5      	clrb 0x5b5
  ef0604:	4878 0001      	pea 0x1
  ef0608:	4879 00ef 6c70 	pea 0xef6c70
  ef060e:	4eba 2c3c      	jsr %pc@(0xef324c)
  ef0612:	504f           	addqw #8,%sp
  ef0614:	6006           	bras 0xef061c
  ef0616:	7201           	moveq #1,%d1
  ef0618:	11c1 05b5      	moveb %d1,0x5b5
  ef061c:	4eba 09b6      	jsr %pc@(0xef0fd4)
  ef0620:	6020           	bras 0xef0642
  ef0622:	4a38 05b8      	tstb 0x5b8
  ef0626:	671a           	beqs 0xef0642
  ef0628:	4879 00ef 6b94 	pea 0xef6b94
  ef062e:	6100 0278      	bsrw 0xef08a8
  ef0632:	584f           	addqw #4,%sp
  ef0634:	2f38 0654      	movel 0x654,%sp@-
  ef0638:	2f38 0650      	movel 0x650,%sp@-
  ef063c:	4eba 2ae2      	jsr %pc@(0xef3120)
  ef0640:	504f           	addqw #8,%sp
  ef0642:	08f8 0004 0481 	bset #4,0x481
  ef0648:	3f38 0480      	movew 0x480,%sp@-
  ef064c:	558f           	subql #2,%sp
  ef064e:	4eba fe6c      	jsr %pc@(0xef04bc)
  ef0652:	584f           	addqw #4,%sp
  ef0654:	302e 0068      	movew %fp@(104),%d0
  ef0658:	48c0           	extl %d0
  ef065a:	7203           	moveq #3,%d1
  ef065c:	b081           	cmpl %d1,%d0
  ef065e:	6752           	beqs 0xef06b2
  ef0660:	4878 000b      	pea 0xb
  ef0664:	4eba fe70      	jsr %pc@(0xef04d6)
  ef0668:	584f           	addqw #4,%sp
  ef066a:	33fc ffff 00ee 	movew #-1,0xee0002
  ef0670:	0002 
  ef0672:	33fc ffff 00ee 	movew #-1,0xee0002
  ef0678:	0002 
  ef067a:	33fc ff5f 00ee 	movew #-161,0xee0002
  ef0680:	0002 
  ef0682:	33fc ffef 00ee 	movew #-17,0xee0002
  ef0688:	0002 
  ef068a:	33fc ffe1 00ee 	movew #-31,0xee0002
  ef0690:	0002 
  ef0692:	33fc ffe2 00ee 	movew #-30,0xee0002
  ef0698:	0002 
  ef069a:	33fc ffe3 00ee 	movew #-29,0xee0002
  ef06a0:	0002 
  ef06a2:	33fc ffe4 00ee 	movew #-28,0xee0002
  ef06a8:	0002 
  ef06aa:	33fc ffe5 00ee 	movew #-27,0xee0002
  ef06b0:	0002 
  ef06b2:	33fc ffe1 00ee 	movew #-31,0xee0002
  ef06b8:	0002 
  ef06ba:	33fc ff01 00ee 	movew #-255,0xee0002
  ef06c0:	0002 
  ef06c2:	33fc 0c22 00ee 	movew #3106,0xee0000
  ef06c8:	0000 
  ef06ca:	33fc 1e00 00ee 	movew #7680,0xee0000
  ef06d0:	0000 
  ef06d2:	33fc ff61 00ee 	movew #-159,0xee0002
  ef06d8:	0002 
  ef06da:	4238 05b6      	clrb 0x5b6
  ef06de:	21fc 00ef 038e 	movel #15664014,0x7c
  ef06e4:	007c 
  ef06e6:	08f8 0006 0481 	bset #6,0x481
  ef06ec:	3f38 0480      	movew 0x480,%sp@-
  ef06f0:	558f           	subql #2,%sp
  ef06f2:	4eba fdc8      	jsr %pc@(0xef04bc)
  ef06f6:	584f           	addqw #4,%sp
  ef06f8:	302e 0068      	movew %fp@(104),%d0
  ef06fc:	48c0           	extl %d0
  ef06fe:	7202           	moveq #2,%d1
  ef0700:	b081           	cmpl %d1,%d0
  ef0702:	661e           	bnes 0xef0722
  ef0704:	0cb8 0060 0000 	cmpil #6291456,0x488
  ef070a:	0488 
  ef070c:	6f08           	bles 0xef0716
  ef070e:	203c 0060 0000 	movel #6291456,%d0
  ef0714:	6004           	bras 0xef071a
  ef0716:	2038 0488      	movel 0x488,%d0
  ef071a:	2f00           	movel %d0,%sp@-
  ef071c:	4eba fd5e      	jsr %pc@(0xef047c)
  ef0720:	584f           	addqw #4,%sp
  ef0722:	302e 0068      	movew %fp@(104),%d0
  ef0726:	48c0           	extl %d0
  ef0728:	7203           	moveq #3,%d1
  ef072a:	b081           	cmpl %d1,%d0
  ef072c:	6700 0144      	beqw 0xef0872
  ef0730:	302e 0068      	movew %fp@(104),%d0
  ef0734:	48c0           	extl %d0
  ef0736:	7202           	moveq #2,%d1
  ef0738:	b081           	cmpl %d1,%d0
  ef073a:	6700 0130      	beqw 0xef086c
  ef073e:	302e 0068      	movew %fp@(104),%d0
  ef0742:	48c0           	extl %d0
  ef0744:	7201           	moveq #1,%d1
  ef0746:	b081           	cmpl %d1,%d0
  ef0748:	6700 0122      	beqw 0xef086c
  ef074c:	4238 05b4      	clrb 0x5b4
  ef0750:	21fc 00ee c004 	movel #15646724,0x52a
  ef0756:	052a 
  ef0758:	21fc 0000 053f 	movel #1343,0x536
  ef075e:	0536 
  ef0760:	21f8 0536 0532 	movel 0x536,0x532
  ef0766:	21fc 0000 0599 	movel #1433,0x53a
  ef076c:	053a 
  ef076e:	4238 053e      	clrb 0x53e
  ef0772:	4238 0530      	clrb 0x530
  ef0776:	7206           	moveq #6,%d1
  ef0778:	11c1 0531      	moveb %d1,0x531
  ef077c:	4a38 05b8      	tstb 0x5b8
  ef0780:	660c           	bnes 0xef078e
  ef0782:	21fc 00ef 6c66 	movel #15690854,0x52a
  ef0788:	052a 
  ef078a:	6000 00be      	braw 0xef084a
  ef078e:	42a7           	clrl %sp@-
  ef0790:	2f38 052a      	movel 0x52a,%sp@-
  ef0794:	4eba 13d6      	jsr %pc@(0xef1b6c)
  ef0798:	504f           	addqw #8,%sp
  ef079a:	2078 052a      	moveal 0x52a,%a0
  ef079e:	720c           	moveq #12,%d1
  ef07a0:	1081           	moveb %d1,%a0@
  ef07a2:	7264           	moveq #100,%d1
  ef07a4:	d3b8 0000      	addl %d1,0x0
  ef07a8:	2078 052a      	moveal 0x52a,%a0
  ef07ac:	727e           	moveq #126,%d1
  ef07ae:	1081           	moveb %d1,%a0@
  ef07b0:	7264           	moveq #100,%d1
  ef07b2:	93b8 0000      	subl %d1,0x0
  ef07b6:	2078 052a      	moveal 0x52a,%a0
  ef07ba:	720d           	moveq #13,%d1
  ef07bc:	1081           	moveb %d1,%a0@
  ef07be:	7264           	moveq #100,%d1
  ef07c0:	d3b8 0000      	addl %d1,0x0
  ef07c4:	2078 052a      	moveal 0x52a,%a0
  ef07c8:	4210           	clrb %a0@
  ef07ca:	93b8 0000      	subl %d1,0x0
  ef07ce:	2d7c 0001 86a0 	movel #100000,%fp@(-4)
  ef07d4:	fffc 
  ef07d6:	4878 0001      	pea 0x1
  ef07da:	4eba fc80      	jsr %pc@(0xef045c)
  ef07de:	584f           	addqw #4,%sp
  ef07e0:	4a80           	tstl %d0
  ef07e2:	660c           	bnes 0xef07f0
  ef07e4:	53ae fffc      	subql #1,%fp@(-4)
  ef07e8:	4aae fffc      	tstl %fp@(-4)
  ef07ec:	6d5c           	blts 0xef084a
  ef07ee:	60e6           	bras 0xef07d6
  ef07f0:	2038 0484      	movel 0x484,%d0
  ef07f4:	7e64           	moveq #100,%d7
  ef07f6:	d087           	addl %d7,%d0
  ef07f8:	2e00           	movel %d0,%d7
  ef07fa:	0c38 0006 0531 	cmpib #6,0x531
  ef0800:	6742           	beqs 0xef0844
  ef0802:	2d7c 0000 03e8 	movel #1000,%fp@(-4)
  ef0808:	fffc 
  ef080a:	4878 0002      	pea 0x2
  ef080e:	4eba fc4c      	jsr %pc@(0xef045c)
  ef0812:	584f           	addqw #4,%sp
  ef0814:	4a80           	tstl %d0
  ef0816:	660a           	bnes 0xef0822
  ef0818:	53ae fffc      	subql #1,%fp@(-4)
  ef081c:	4aae fffc      	tstl %fp@(-4)
  ef0820:	6ce8           	bges 0xef080a
  ef0822:	2d7c 0000 03e8 	movel #1000,%fp@(-4)
  ef0828:	fffc 
  ef082a:	4878 0003      	pea 0x3
  ef082e:	4eba fc2c      	jsr %pc@(0xef045c)
  ef0832:	584f           	addqw #4,%sp
  ef0834:	4a80           	tstl %d0
  ef0836:	6624           	bnes 0xef085c
  ef0838:	53ae fffc      	subql #1,%fp@(-4)
  ef083c:	4aae fffc      	tstl %fp@(-4)
  ef0840:	6d1a           	blts 0xef085c
  ef0842:	60e6           	bras 0xef082a
  ef0844:	beb8 0484      	cmpl 0x484,%d7
  ef0848:	6eb0           	bgts 0xef07fa
  ef084a:	7201           	moveq #1,%d1
  ef084c:	11c1 05b4      	moveb %d1,0x5b4
  ef0850:	4879 00ef 6c72 	pea 0xef6c72
  ef0856:	4eba 1804      	jsr %pc@(0xef205c)
  ef085a:	584f           	addqw #4,%sp
  ef085c:	4eba 1c52      	jsr %pc@(0xef24b0)
  ef0860:	302e 0068      	movew %fp@(104),%d0
  ef0864:	48c0           	extl %d0
  ef0866:	7203           	moveq #3,%d1
  ef0868:	b081           	cmpl %d1,%d0
  ef086a:	6706           	beqs 0xef0872
  ef086c:	2d78 0488 0048 	movel 0x488,%fp@(72)
  ef0872:	203c 00ef 0236 	movel #15663670,%d0
  ef0878:	0280 0000 7fff 	andil #32767,%d0
  ef087e:	21c0 05ba      	movel %d0,0x5ba
  ef0882:	2038 05ba      	movel 0x5ba,%d0
  ef0886:	4680           	notl %d0
  ef0888:	21c0 05be      	movel %d0,0x5be
  ef088c:	21fc fe40 0000 	movel #-29360128,0x5c2
  ef0892:	05c2 
  ef0894:	2038 05c2      	movel 0x5c2,%d0
  ef0898:	4680           	notl %d0
  ef089a:	21c0 05c6      	movel %d0,0x5c6
  ef089e:	4cee 3080 ffe0 	moveml %fp@(-32),%d7/%a4-%a5
  ef08a4:	4e5e           	unlk %fp
  ef08a6:	4e75           	rts
  ef08a8:	4e56 fff4      	linkw %fp,#-12
  ef08ac:	2e8d           	movel %a5,%sp@
  ef08ae:	2a6e 0008      	moveal %fp@(8),%a5
  ef08b2:	0c6d 8000 0004 	cmpiw #-32768,%a5@(4)
  ef08b8:	6744           	beqs 0xef08fe
  ef08ba:	2d55 fffc      	movel %a5@,%fp@(-4)
  ef08be:	41ed 0006      	lea %a5@(6),%a0
  ef08c2:	2d50 fff8      	movel %a0@,%fp@(-8)
  ef08c6:	202e fffc      	movel %fp@(-4),%d0
  ef08ca:	b0ad 000a      	cmpl %a5@(10),%d0
  ef08ce:	6428           	bccs 0xef08f8
  ef08d0:	2f2e fff8      	movel %fp@(-8),%sp@-
  ef08d4:	2f00           	movel %d0,%sp@-
  ef08d6:	4eba 0198      	jsr %pc@(0xef0a70)
  ef08da:	504f           	addqw #8,%sp
  ef08dc:	06ae 0000 0800 	addil #2048,%fp@(-4)
  ef08e2:	fffc 
  ef08e4:	7000           	moveq #0,%d0
  ef08e6:	302e fffa      	movew %fp@(-6),%d0
  ef08ea:	322d 0004      	movew %a5@(4),%d1
  ef08ee:	48c1           	extl %d1
  ef08f0:	d081           	addl %d1,%d0
  ef08f2:	3d40 fffa      	movew %d0,%fp@(-6)
  ef08f6:	60ce           	bras 0xef08c6
  ef08f8:	720a           	moveq #10,%d1
  ef08fa:	dbc1           	addal %d1,%a5
  ef08fc:	60b4           	bras 0xef08b2
  ef08fe:	2a6e fff4      	moveal %fp@(-12),%a5
  ef0902:	4e5e           	unlk %fp
  ef0904:	4e75           	rts
  ef0906:	4e56 fff8      	linkw %fp,#-8
  ef090a:	48d7 2080      	moveml %d7/%a5,%sp@
  ef090e:	42a7           	clrl %sp@-
  ef0910:	4eba 0206      	jsr %pc@(0xef0b18)
  ef0914:	584f           	addqw #4,%sp
  ef0916:	3e3c 00ff      	movew #255,%d7
  ef091a:	2a7c 00ff 8000 	moveal #16744448,%a5
  ef0920:	1007           	moveb %d7,%d0
  ef0922:	5347           	subqw #1,%d7
  ef0924:	0280 0000 00ff 	andil #255,%d0
  ef092a:	2f00           	movel %d0,%sp@-
  ef092c:	4855           	pea %a5@
  ef092e:	4eba 0186      	jsr %pc@(0xef0ab6)
  ef0932:	504f           	addqw #8,%sp
  ef0934:	220d           	movel %a5,%d1
  ef0936:	671c           	beqs 0xef0954
  ef0938:	9bfc 0000 8000 	subal #32768,%a5
  ef093e:	bbfc 0060 0000 	cmpal #6291456,%a5
  ef0944:	65da           	bcss 0xef0920
  ef0946:	bbfc 00e0 0000 	cmpal #14680064,%a5
  ef094c:	64d2           	bccs 0xef0920
  ef094e:	4878 00ff      	pea 0xff
  ef0952:	60d8           	bras 0xef092c
  ef0954:	4878 00ff      	pea 0xff
  ef0958:	4879 00ea 8000 	pea 0xea8000
  ef095e:	4eba 0156      	jsr %pc@(0xef0ab6)
  ef0962:	504f           	addqw #8,%sp
  ef0964:	4878 01d5      	pea 0x1d5
  ef0968:	4878 8100      	pea 0xffff8100
  ef096c:	4eba 0148      	jsr %pc@(0xef0ab6)
  ef0970:	504f           	addqw #8,%sp
  ef0972:	4879 fe40 0000 	pea 0xfe400000
  ef0978:	4879 00ef 6ba8 	pea 0xef6ba8
  ef097e:	4eba 00f0      	jsr %pc@(0xef0a70)
  ef0982:	504f           	addqw #8,%sp
  ef0984:	4879 fe40 0000 	pea 0xfe400000
  ef098a:	4879 00ef 73a8 	pea 0xef73a8
  ef0990:	4eba 00de      	jsr %pc@(0xef0a70)
  ef0994:	504f           	addqw #8,%sp
  ef0996:	4879 00ef 6ba8 	pea 0xef6ba8
  ef099c:	6100 ff0a      	bsrw 0xef08a8
  ef09a0:	584f           	addqw #4,%sp
  ef09a2:	08f8 0007 0481 	bset #7,0x481
  ef09a8:	08f8 0005 0481 	bset #5,0x481
  ef09ae:	3f38 0480      	movew 0x480,%sp@-
  ef09b2:	558f           	subql #2,%sp
  ef09b4:	4eba fb06      	jsr %pc@(0xef04bc)
  ef09b8:	584f           	addqw #4,%sp
  ef09ba:	4cee 2080 fff8 	moveml %fp@(-8),%d7/%a5
  ef09c0:	4e5e           	unlk %fp
  ef09c2:	4e75           	rts
  ef09c4:	4e56 ffec      	linkw %fp,#-20
  ef09c8:	486e fff0      	pea %fp@(-16)
  ef09cc:	4eba 1156      	jsr %pc@(0xef1b24)
  ef09d0:	584f           	addqw #4,%sp
  ef09d2:	4a80           	tstl %d0
  ef09d4:	663e           	bnes 0xef0a14
  ef09d6:	3d79 00ec 0000 	movew 0xec0000,%fp@(-18)
  ef09dc:	ffee 
  ef09de:	302e ffee      	movew %fp@(-18),%d0
  ef09e2:	b079 00ec 0000 	cmpw 0xec0000,%d0
  ef09e8:	662a           	bnes 0xef0a14
  ef09ea:	4640           	notw %d0
  ef09ec:	33c0 00ec 0000 	movew %d0,0xec0000
  ef09f2:	302e ffee      	movew %fp@(-18),%d0
  ef09f6:	4640           	notw %d0
  ef09f8:	b079 00ec 0000 	cmpw 0xec0000,%d0
  ef09fe:	6614           	bnes 0xef0a14
  ef0a00:	33ee ffee 00ec 	movew %fp@(-18),0xec0000
  ef0a06:	0000 
  ef0a08:	302e ffee      	movew %fp@(-18),%d0
  ef0a0c:	b079 00ec 0000 	cmpw 0xec0000,%d0
  ef0a12:	6704           	beqs 0xef0a18
  ef0a14:	7000           	moveq #0,%d0
  ef0a16:	600c           	bras 0xef0a24
  ef0a18:	486e fff0      	pea %fp@(-16)
  ef0a1c:	4eba 113a      	jsr %pc@(0xef1b58)
  ef0a20:	584f           	addqw #4,%sp
  ef0a22:	7001           	moveq #1,%d0
  ef0a24:	4e5e           	unlk %fp
  ef0a26:	4e75           	rts
  ef0a28:	8000           	orb %d0,%d0
  ef0a2a:	0000 202f      	orib #47,%d0
  ef0a2e:	0004 0240      	orib #64,%d4
  ef0a32:	f800 2040      	tbluw %d0,%d0,%d2
  ef0a36:	4e7a 1000      	movec %sfc,%d1
  ef0a3a:	43f8 0003      	lea 0x3,%a1
  ef0a3e:	4e7b 9000      	movec %a1,%sfc
  ef0a42:	0e90 0000      	movesl %a0@,%d0
  ef0a46:	4e7b 1000      	movec %d1,%sfc
  ef0a4a:	4e75           	rts
  ef0a4c:	202f 0004      	movel %sp@(4),%d0
  ef0a50:	0240 f800      	andiw #-2048,%d0
  ef0a54:	5a80           	addql #5,%d0
  ef0a56:	2040           	moveal %d0,%a0
  ef0a58:	4e7a 1000      	movec %sfc,%d1
  ef0a5c:	43f8 0003      	lea 0x3,%a1
  ef0a60:	4e7b 9000      	movec %a1,%sfc
  ef0a64:	7000           	moveq #0,%d0
  ef0a66:	0e10 0000      	movesb %a0@,%d0
  ef0a6a:	4e7b 1000      	movec %d1,%sfc
  ef0a6e:	4e75           	rts
  ef0a70:	202f 0004      	movel %sp@(4),%d0
  ef0a74:	0240 f800      	andiw #-2048,%d0
  ef0a78:	2040           	moveal %d0,%a0
  ef0a7a:	43f8 0003      	lea 0x3,%a1
  ef0a7e:	4e7a 0000      	movec %sfc,%d0
  ef0a82:	4e7b 9000      	movec %a1,%sfc
  ef0a86:	0e28 1000 0005 	movesb %a0@(5),%d1
  ef0a8c:	4e7b 0000      	movec %d0,%sfc
  ef0a90:	202f 0008      	movel %sp@(8),%d0
  ef0a94:	0c01 00ff      	cmpib #-1,%d1
  ef0a98:	660a           	bnes 0xef0aa4
  ef0a9a:	0c80 8000 0000 	cmpil #-2147483648,%d0
  ef0aa0:	6702           	beqs 0xef0aa4
  ef0aa2:	60fd           	bras 0xef0aa1
  ef0aa4:	4e7a 1001      	movec %dfc,%d1
  ef0aa8:	4e7b 9001      	movec %a1,%dfc
  ef0aac:	0e90 0800      	movesl %d0,%a0@
  ef0ab0:	4e7b 1001      	movec %d1,%dfc
  ef0ab4:	4e75           	rts
  ef0ab6:	202f 0004      	movel %sp@(4),%d0
  ef0aba:	0240 f800      	andiw #-2048,%d0
  ef0abe:	5a80           	addql #5,%d0
  ef0ac0:	2040           	moveal %d0,%a0
  ef0ac2:	202f 0008      	movel %sp@(8),%d0
  ef0ac6:	4e7a 1001      	movec %dfc,%d1
  ef0aca:	43f8 0003      	lea 0x3,%a1
  ef0ace:	4e7b 9001      	movec %a1,%dfc
  ef0ad2:	0e10 0800      	movesb %d0,%a0@
  ef0ad6:	4e7b 1001      	movec %d1,%dfc
  ef0ada:	4e75           	rts
  ef0adc:	4e7a 1000      	movec %sfc,%d1
  ef0ae0:	43f8 0003      	lea 0x3,%a1
  ef0ae4:	4e7b 9000      	movec %a1,%sfc
  ef0ae8:	7000           	moveq #0,%d0
  ef0aea:	0e38 0000 0007 	movesb 0x7,%d0
  ef0af0:	0200 0007      	andib #7,%d0
  ef0af4:	4e7b 1000      	movec %d1,%sfc
  ef0af8:	4e75           	rts
  ef0afa:	4e7a 1000      	movec %sfc,%d1
  ef0afe:	43f8 0003      	lea 0x3,%a1
  ef0b02:	4e7b 9000      	movec %a1,%sfc
  ef0b06:	7000           	moveq #0,%d0
  ef0b08:	0e38 0000 0006 	movesb 0x6,%d0
  ef0b0e:	0200 0007      	andib #7,%d0
  ef0b12:	4e7b 1000      	movec %d1,%sfc
  ef0b16:	4e75           	rts
  ef0b18:	102f 0007      	moveb %sp@(7),%d0
  ef0b1c:	4e7a 1001      	movec %dfc,%d1
  ef0b20:	43f8 0003      	lea 0x3,%a1
  ef0b24:	4e7b 9001      	movec %a1,%dfc
  ef0b28:	0e38 0800 0007 	movesb %d0,0x7
  ef0b2e:	4e7b 1001      	movec %d1,%dfc
  ef0b32:	4e75           	rts
  ef0b34:	4e7a 1001      	movec %dfc,%d1
  ef0b38:	102f 0007      	moveb %sp@(7),%d0
  ef0b3c:	43f8 0003      	lea 0x3,%a1
  ef0b40:	4e7b 9001      	movec %a1,%dfc
  ef0b44:	0e38 0800 0006 	movesb %d0,0x6
  ef0b4a:	4e7b 1001      	movec %d1,%dfc
  ef0b4e:	4e75           	rts
  ef0b50:	5283           	addql #1,%d3
  ef0b52:	203c 0000 c350 	movel #50000,%d0
  ef0b58:	5380           	subql #1,%d0
  ef0b5a:	6600 fffc      	bnew 0xef0b58
  ef0b5e:	4ed0           	jmp %a0@

  ef0b60:	9dce           	subal %fp,%fp			_qpdiag
  ef0b62:	74ff           	moveq #-1,%d2
  ef0b64:	7600           	moveq #0,%d3
  ef0b66:	3e7c 0003      	moveaw #3,%sp
  ef0b6a:	4e7b f000      	movec %sp,%sfc
  ef0b6e:	4e7b f001      	movec %sp,%dfc
  ef0b72:	3e3c 7fff      	movew #32767,%d7	XXXXXXX
  ef0b76:	0e38 7800 000b 	movesb %d7,0xb
  ef0b7c:	203c 0000 c350 	movel #50000,%d0
  ef0b82:	5380           	subql #1,%d0
  ef0b84:	6600 fffc      	bnew 0xef0b82
  ef0b88:	e35f           	rolw #1,%d7
  ef0b8a:	0c07 00ff      	cmpib #-1,%d7
  ef0b8e:	6be6           	bmis 0xef0b76
  ef0b90:	41fa fffe      	lea %pc@(0xef0b90),%a0
  ef0b94:	70ee           	moveq #-18,%d0
  ef0b96:	0e38 0800 000b 	movesb %d0,0xb
  ef0b9c:	3e3c 0707      	movew #1799,%d7
  ef0ba0:	0247 0707      	andiw #1799,%d7			CXloop
  ef0ba4:	0e78 7800 0006 	movesw %d7,0x6
  ef0baa:	0e78 0000 0006 	movesw 0x6,%d0
  ef0bb0:	0240 0707      	andiw #1799,%d0
  ef0bb4:	b047           	cmpw %d7,%d0
  ef0bb6:	56cf ffe8      	dbne %d7,0xef0ba0		nop these (4e71)
  ef0bba:	6706           	beqs 0xef0bc2
  ef0bbc:	0882 0008      	bclr #8,%d2
  ef0bc0:	608e           	bras 0xef0b50
  ef0bc2:	3e3c 00aa      	movew #170,%d7
  ef0bc6:	41fa fffe      	lea %pc@(0xef0bc6),%a0
  ef0bca:	70de           	moveq #-34,%d0
  ef0bcc:	0e38 0800 000b 	movesb %d0,0xb
  ef0bd2:	7a07           	moveq #7,%d5
  ef0bd4:	0e38 5800 0007 	movesb %d5,0x7
  ef0bda:	4bf9 0100 0000 	lea 0x1000000,%a5
  ef0be0:	9bfc 0000 8000 	subal #32768,%a5
  ef0be6:	0e2d 7800 0005 	movesb %d7,%a5@(5)		SMcon2
  ef0bec:	200d           	movel %a5,%d0
  ef0bee:	66f0           	bnes 0xef0be0
  ef0bf0:	51cd ffe2      	dbf %d5,0xef0bd4
  ef0bf4:	7a07           	moveq #7,%d5
  ef0bf6:	0e38 5800 0007 	movesb %d5,0x7			SMcon3
  ef0bfc:	4bf9 0100 0000 	lea 0x1000000,%a5
  ef0c02:	9bfc 0000 8000 	subal #32768,%a5		SMcon4
  ef0c08:	0e2d 0000 0005 	movesb %a5@(5),%d0
  ef0c0e:	be00           	cmpb %d0,%d7
  ef0c10:	670e           	beqs 0xef0c20
  ef0c12:	5283           	addql #1,%d3
  ef0c14:	0882 0009      	bclr #9,%d2
  ef0c18:	0e2d 7800 0005 	movesb %d7,%a5@(5)
  ef0c1e:	60e8           	bras 0xef0c08
  ef0c20:	200d           	movel %a5,%d0
  ef0c22:	66de           	bnes 0xef0c02
  ef0c24:	51cd ffd0      	dbf %d5,0xef0bf6		nop these
  ef0c28:	0c07 0055      	cmpib #85,%d7
  ef0c2c:	6706           	beqs 0xef0c34			nop this
  ef0c2e:	3e3c 0055      	movew #85,%d7			nop these
  ef0c32:	609e           	bras 0xef0bd2			nop this
  ef0c34:	41fa fffe      	lea %pc@(0xef0c34),%a0
  ef0c38:	70dc           	moveq #-36,%d0
  ef0c3a:	0e38 0800 000b 	movesb %d0,0xb
  ef0c40:	3e3c 00ff      	movew #255,%d7
  ef0c44:	0e38 7800 0005 	movesb %d7,0x5
  ef0c4a:	0e38 0000 0005 	movesb 0x5,%d0
  ef0c50:	b007           	cmpb %d7,%d0
  ef0c52:	56cf fff0      	dbne %d7,0xef0c44
  ef0c56:	6708           	beqs 0xef0c60
  ef0c58:	5283           	addql #1,%d3
  ef0c5a:	0882 0009      	bclr #9,%d2
  ef0c5e:	60e4           	bras 0xef0c44
  ef0c60:	41fa fffe      	lea %pc@(0xef0c60),%a0
  ef0c64:	70dd           	moveq #-35,%d0
  ef0c66:	0e38 0800 000b 	movesb %d0,0xb
  ef0c6c:	4247           	clrw %d7
  ef0c6e:	7a07           	moveq #7,%d5
  ef0c70:	0e38 5800 0007 	movesb %d5,0x7
  ef0c76:	2e05           	movel %d5,%d7
  ef0c78:	4bf9 0100 0000 	lea 0x1000000,%a5
  ef0c7e:	9bfc 0000 8000 	subal #32768,%a5
  ef0c84:	0e2d 7800 0005 	movesb %d7,%a5@(5)
  ef0c8a:	5207           	addqb #1,%d7
  ef0c8c:	200d           	movel %a5,%d0
  ef0c8e:	66ee           	bnes 0xef0c7e
  ef0c90:	51cd ffde      	dbf %d5,0xef0c70
  ef0c94:	7a07           	moveq #7,%d5
  ef0c96:	0e38 5800 0007 	movesb %d5,0x7
  ef0c9c:	2e05           	movel %d5,%d7
  ef0c9e:	4bf9 0100 0000 	lea 0x1000000,%a5
  ef0ca4:	9bfc 0000 8000 	subal #32768,%a5
  ef0caa:	0e2d 0000 0005 	movesb %a5@(5),%d0
  ef0cb0:	be00           	cmpb %d0,%d7
  ef0cb2:	660c           	bnes 0xef0cc0
  ef0cb4:	5207           	addqb #1,%d7
  ef0cb6:	200d           	movel %a5,%d0
  ef0cb8:	66ea           	bnes 0xef0ca4
  ef0cba:	51cd ffda      	dbf %d5,0xef0c96		nop these	SMaddrlz
  ef0cbe:	6008           	bras 0xef0cc8
  ef0cc0:	0882 0009      	bclr #9,%d2
  ef0cc4:	6000 fe8a      	braw 0xef0b50
  ef0cc8:	7000           	moveq #0,%d0
  ef0cca:	0e38 0800 0007 	movesb %d0,0x7
  ef0cd0:	2a7c 007f 8000 	moveal #8355840,%a5
  ef0cd6:	3a3c 00ff      	movew #255,%d5
  ef0cda:	0e2d 5800 0005 	movesb %d5,%a5@(5)
  ef0ce0:	9bfc 0000 8000 	subal #32768,%a5
  ef0ce6:	51cd fff2      	dbf %d5,0xef0cda
  ef0cea:	223c fff0 0fff 	movel #-1044481,%d1
  ef0cf0:	2e3c 3333 3333 	movel #858993459,%d7
  ef0cf6:	ce81           	andl %d1,%d7			PMconst
  ef0cf8:	41fa fffc      	lea %pc@(0xef0cf6),%a0
  ef0cfc:	70ce           	moveq #-50,%d0
  ef0cfe:	0e38 0800 000b 	movesb %d0,0xb
  ef0d04:	2a3c 0000 0fff 	movel #4095,%d5
  ef0d0a:	9bcd           	subal %a5,%a5
  ef0d0c:	0ead 7800 0000 	movesl %d7,%a5@(0)
  ef0d12:	dafc 0800      	addaw #2048,%a5
  ef0d16:	51cd fff4      	dbf %d5,0xef0d0c		nop these
  ef0d1a:	2a3c 0000 0fff 	movel #4095,%d5
  ef0d20:	9bcd           	subal %a5,%a5
  ef0d22:	0ead 0000 0000 	movesl %a5@(0),%d0
  ef0d28:	c081           	andl %d1,%d0
  ef0d2a:	be80           	cmpl %d0,%d7
  ef0d2c:	6612           	bnes 0xef0d40
  ef0d2e:	dafc 0800      	addaw #2048,%a5			PMconlz
  ef0d32:	51cd ffee      	dbf %d5,0xef0d22		nop these
  ef0d36:	0c07 00cc      	cmpib #-52,%d7
  ef0d3a:	671a           	beqs 0xef0d56
  ef0d3c:	4687           	notl %d7
  ef0d3e:	60b6           	bras 0xef0cf6
  ef0d40:	5283           	addql #1,%d3
  ef0d42:	0882 000a      	bclr #10,%d2
  ef0d46:	0ead 7800 0000 	movesl %d7,%a5@(0)
  ef0d4c:	60d4           	bras 0xef0d22
  ef0d4e:	0882 000a      	bclr #10,%d2
  ef0d52:	6000 fdfc      	braw 0xef0b50
  ef0d56:	41fa fffe      	lea %pc@(0xef0d56),%a0
  ef0d5a:	70cc           	moveq #-52,%d0
  ef0d5c:	0e38 0800 000b 	movesb %d0,0xb
  ef0d62:	7efe           	moveq #-2,%d7
  ef0d64:	7a1f           	moveq #31,%d5
  ef0d66:	0eb8 7800 0000 	movesl %d7,0x0
  ef0d6c:	0eb8 0000 0000 	movesl 0x0,%d0
  ef0d72:	bf80           	eorl %d7,%d0
  ef0d74:	c081           	andl %d1,%d0
  ef0d76:	6708           	beqs 0xef0d80
  ef0d78:	5283           	addql #1,%d3
  ef0d7a:	0882 000a      	bclr #10,%d2
  ef0d7e:	60e6           	bras 0xef0d66
  ef0d80:	e39f           	roll #1,%d7			PMdatok
  ef0d82:	51cd ffe2      	dbf %d5,0xef0d66		nop these
  ef0d86:	4687           	notl %d7
  ef0d88:	6ada           	bpls 0xef0d64
  ef0d8a:	41fa fffe      	lea %pc@(0xef0d8a),%a0		PMaddr
  ef0d8e:	70cd           	moveq #-51,%d0
  ef0d90:	0e38 0800 000b 	movesb %d0,0xb
  ef0d96:	2a3c 0000 0fff 	movel #4095,%d5
  ef0d9c:	9bcd           	subal %a5,%a5
  ef0d9e:	0ead 5800 0000 	movesl %d5,%a5@(0)
  ef0da4:	dafc 0800      	addaw #2048,%a5
  ef0da8:	51cd fff4      	dbf %d5,0xef0d9e		nop these
  ef0dac:	2a3c 0000 0fff 	movel #4095,%d5
  ef0db2:	9bcd           	subal %a5,%a5
  ef0db4:	0ead 0000 0000 	movesl %a5@(0),%d0
  ef0dba:	c081           	andl %d1,%d0
  ef0dbc:	ba80           	cmpl %d0,%d5
  ef0dbe:	668e           	bnes 0xef0d4e
  ef0dc0:	dafc 0800      	addaw #2048,%a5
  ef0dc4:	51cd ffee      	dbf %d5,0xef0db4		nop these
  ef0dc8:	41fa fffe      	lea %pc@(0xef0dc8),%a0		Mprom
  ef0dcc:	70bf           	moveq #-65,%d0
  ef0dce:	0e38 0800 000b 	movesb %d0,0xb
  ef0dd4:	203c fe40 0000 	movel #-29360128,%d0
  ef0dda:	9bcd           	subal %a5,%a5
  ef0ddc:	0ead 0800 0000 	movesl %d0,%a5@(0)
  ef0de2:	dafc 0800      	addaw #2048,%a5
  ef0de6:	bbfc 0000 8000 	cmpal #32768,%a5
  ef0dec:	66ee           	bnes 0xef0ddc
  ef0dee:	7006           	moveq #6,%d0
  ef0df0:	4e7b 0000      	movec %d0,%sfc       XXXXXXXXXXXXXXXXXX
  
  ef0df4:	7e00           	moveq #0,%d7
  ef0df6:	7000           	moveq #0,%d0
  ef0df8:	de80           	addl %d0,%d7
  ef0dfa:	538d           	subql #1,%a5
  ef0dfc:	2c0d           	movel %a5,%d6
  ef0dfe:	6b10           	bmis 0xef0e10
  ef0e00:	0e15 0000      	movesb %a5@,%d0
  ef0e04:	b015           	cmpb %a5@,%d0
  ef0e06:	67f0           	beqs 0xef0df8
  ef0e08:	0882 0007      	bclr #7,%d2
  ef0e0c:	5283           	addql #1,%d3
  ef0e0e:	60f0           	bras 0xef0e00
  ef0e10:	7003           	moveq #3,%d0
  ef0e12:	4e7b 0000      	movec %d0,%sfc
  ef0e16:	2803           	movel %d3,%d4
  ef0e18:	708f           	moveq #-113,%d0
  ef0e1a:	0e38 0800 000b 	movesb %d0,0xb
  ef0e20:	91c8           	subal %a0,%a0
  ef0e22:	7e00           	moveq #0,%d7
  ef0e24:	9dce           	subal %fp,%fp
  ef0e26:	0e2e 7800 0005 	movesb %d7,%fp@(5)
  ef0e2c:	ddfc 0000 8000 	addal #32768,%fp
  ef0e32:	5207           	addqb #1,%d7
  ef0e34:	0c07 0100      	cmpib #0,%d7
  ef0e38:	66ec           	bnes 0xef0e26
  ef0e3a:	bdfc 0070 0000 	cmpal #7340032,%fp
  ef0e40:	6f06           	bles 0xef0e48
  ef0e42:	2c7c 0070 0000 	moveal #7340032,%fp
  ef0e48:	203c fe00 0000 	movel #-33554432,%d0
  ef0e4e:	9bcd           	subal %a5,%a5
  ef0e50:	0ead 0800 0000 	movesl %d0,%a5@(0)
  ef0e56:	2a80           	movel %d0,%a5@
  ef0e58:	b095           	cmpl %a5@,%d0
  ef0e5a:	66f4           	bnes 0xef0e50
  ef0e5c:	0ead 0800 0000 	movesl %d0,%a5@(0)
  ef0e62:	2a80           	movel %d0,%a5@
  ef0e64:	b095           	cmpl %a5@,%d0
  ef0e66:	6602           	bnes 0xef0e6a
  ef0e68:	2e4d           	moveal %a5,%sp
  ef0e6a:	5240           	addqw #1,%d0
  ef0e6c:	dafc 0800      	addaw #2048,%a5
  ef0e70:	bdcd           	cmpal %a5,%fp
  ef0e72:	66e8           	bnes 0xef0e5c
  ef0e74:	2c4f           	moveal %sp,%fp
  ef0e76:	dcfc 0800      	addaw #2048,%fp
  ef0e7a:	2e3c aaaa aaaa 	movel #-1431655766,%d7
X ef0e80:	708e           	moveq #-114,%d0		Mcontop     XXXXXXXX
  ef0e82:	0e38 0800 000b 	movesb %d0,0xb
  ef0e88:	9bcd           	subal %a5,%a5
  ef0e8a:	2a0e           	movel %fp,%d5
  ef0e8c:	e48d           	lsrl #2,%d5
  ef0e8e:	6002           	bras 0xef0e92
  ef0e90:	2ac7           	movel %d7,%a5@+
  ef0e92:	51cd fffc      	dbf %d5,0xef0e90	nop these *
  ef0e96:	4245           	clrw %d5
  ef0e98:	5385           	subql #1,%d5
  ef0e9a:	64f4           	bccs 0xef0e90		nop this *
  ef0e9c:	2a3c 0000 0fa0 	movel #4000,%d5
  ef0ea2:	5385           	subql #1,%d5
  ef0ea4:	6efc           	bgts 0xef0ea2		nop this
  ef0ea6:	9bcd           	subal %a5,%a5
  ef0ea8:	2a0e           	movel %fp,%d5
  ef0eaa:	e48d           	lsrl #2,%d5
  ef0eac:	7000           	moveq #0,%d0
  ef0eae:	6002           	bras 0xef0eb2
  ef0eb0:	be9d           	cmpl %a5@+,%d7
  ef0eb2:	56cd fffc      	dbne %d5,0xef0eb0
  ef0eb6:	6610           	bnes 0xef0ec8
  ef0eb8:	4245           	clrw %d5
  ef0eba:	5385           	subql #1,%d5
  ef0ebc:	64f2           	bccs 0xef0eb0
  ef0ebe:	4687           	notl %d7
  ef0ec0:	0c07 00aa      	cmpib #-86,%d7
  ef0ec4:	66c2           	bnes 0xef0e88		nop this *
  ef0ec6:	6064           	bras 0xef0f2c
  ef0ec8:	40c1           	movew %sr,%d1
  ef0eca:	2025           	movel %a5@-,%d0
  ef0ecc:	be80           	cmpl %d0,%d7
  ef0ece:	662a           	bnes 0xef0efa
  ef0ed0:	2015           	movel %a5@,%d0
  ef0ed2:	be80           	cmpl %d0,%d7
  ef0ed4:	6624           	bnes 0xef0efa
  ef0ed6:	3001           	movew %d1,%d0
  ef0ed8:	721b           	moveq #27,%d1
  ef0eda:	5284           	addql #1,%d4
  ef0edc:	41fa 0004      	lea %pc@(0xef0ee2),%a0
  ef0ee0:	601e           	bras 0xef0f00
  ef0ee2:	7472           	moveq #114,%d2
  ef0ee4:	616e           	bsrs 0xef0f54
  ef0ee6:	7369 656e      	mvsw %a1@(25966),%d1
  ef0eea:	7420           	moveq #32,%d2
  ef0eec:	6d65           	blts 0xef0f53
  ef0eee:	6d6f           	blts 0xef0f5f
  ef0ef0:	7279           	moveq #121,%d1
  ef0ef2:	205b           	moveal %a3@+,%a0
  ef0ef4:	6461           	bccs 0xef0f57
  ef0ef6:	7461           	moveq #97,%d2
  ef0ef8:	5d00           	subqb #6,%d0
  ef0efa:	7219           	moveq #25,%d1
  ef0efc:	41fa ffee      	lea %pc@(0xef0eec),%a0
  ef0f00:	5283           	addql #1,%d3
  ef0f02:	0882 000b      	bclr #11,%d2
  ef0f06:	0382           	bclr %d1,%d2
  ef0f08:	224d           	moveal %a5,%a1
  ef0f0a:	2447           	moveal %d7,%a2
  ef0f0c:	2640           	moveal %d0,%a3
  ef0f0e:	200d           	movel %a5,%d0
  ef0f10:	0280 ffff f800 	andil #-2048,%d0
  ef0f16:	2e40           	moveal %d0,%sp
  ef0f18:	0eaf 0000 0000 	movesl %sp@(0),%d0
  ef0f1e:	0380           	bclr %d1,%d0
  ef0f20:	0eaf 0800 0000 	movesl %d0,%sp@(0)
  ef0f26:	584d           	addqw #4,%a5
  ef0f28:	7000           	moveq #0,%d0
  ef0f2a:	6086           	bras 0xef0eb2
  ef0f2c:	708d           	moveq #-115,%d0
  ef0f2e:	0e38 0800 000b 	movesb %d0,0xb
  ef0f34:	9bcd           	subal %a5,%a5
  ef0f36:	2a0e           	movel %fp,%d5
  ef0f38:	e28d           	lsrl #1,%d5
  ef0f3a:	6002           	bras 0xef0f3e
  ef0f3c:	3ac5           	movew %d5,%a5@+
  ef0f3e:	51cd fffc      	dbf %d5,0xef0f3c	nop these *
  ef0f42:	4245           	clrw %d5
  ef0f44:	5385           	subql #1,%d5
  ef0f46:	64f4           	bccs 0xef0f3c		nop this *
  ef0f48:	2a3c 0000 0fa0 	movel #4000,%d5
  ef0f4e:	5385           	subql #1,%d5
  ef0f50:	6efc           	bgts 0xef0f4e		nop this *
  ef0f52:	9bcd           	subal %a5,%a5
  ef0f54:	2a0e           	movel %fp,%d5
  ef0f56:	e28d           	lsrl #1,%d5
  ef0f58:	7000           	moveq #0,%d0
  ef0f5a:	6002           	bras 0xef0f5e
  ef0f5c:	ba5d           	cmpw %a5@+,%d5
  ef0f5e:	56cd fffc      	dbne %d5,0xef0f5c	nop these *
  ef0f62:	6620           	bnes 0xef0f84
  ef0f64:	4245           	clrw %d5
  ef0f66:	5385           	subql #1,%d5
  ef0f68:	64f2           	bccs 0xef0f5c		nop this *   XXXXXXX
  ef0f6a:	6064           	bras 0xef0fd0
  ef0f6c:	7472           	moveq #114,%d2
  ef0f6e:	616e           	bsrs 0xef0fde
  ef0f70:	7369 656e      	mvsw %a1@(25966),%d1
  ef0f74:	7420           	moveq #32,%d2
  ef0f76:	6d65           	blts 0xef0fdd
  ef0f78:	6d6f           	blts 0xef0fe9
  ef0f7a:	7279           	moveq #121,%d1
  ef0f7c:	205b           	moveal %a3@+,%a0
  ef0f7e:	6164           	bsrs 0xef0fe4
  ef0f80:	6472           	bccs 0xef0ff4
  ef0f82:	5d00           	subqb #6,%d0
  ef0f84:	40c1           	movew %sr,%d1
  ef0f86:	3025           	movew %a5@-,%d0
  ef0f88:	ba40           	cmpw %d0,%d5
  ef0f8a:	6612           	bnes 0xef0f9e
  ef0f8c:	2015           	movel %a5@,%d0
  ef0f8e:	ba40           	cmpw %d0,%d5
  ef0f90:	660c           	bnes 0xef0f9e
  ef0f92:	2001           	movel %d1,%d0
  ef0f94:	721b           	moveq #27,%d1
  ef0f96:	5284           	addql #1,%d4
  ef0f98:	41fa ffd2      	lea %pc@(0xef0f6c),%a0
  ef0f9c:	6006           	bras 0xef0fa4
  ef0f9e:	721a           	moveq #26,%d1
  ef0fa0:	41fa ffd4      	lea %pc@(0xef0f76),%a0
  ef0fa4:	5283           	addql #1,%d3
  ef0fa6:	0882 000b      	bclr #11,%d2
  ef0faa:	0382           	bclr %d1,%d2
  ef0fac:	224d           	moveal %a5,%a1
  ef0fae:	2445           	moveal %d5,%a2
  ef0fb0:	2640           	moveal %d0,%a3
  ef0fb2:	200d           	movel %a5,%d0
  ef0fb4:	0280 ffff f800 	andil #-2048,%d0
  ef0fba:	2e40           	moveal %d0,%sp
  ef0fbc:	0eaf 0000 0000 	movesl %sp@(0),%d0
  ef0fc2:	0380           	bclr %d1,%d0
  ef0fc4:	0eaf 0800 0000 	movesl %d0,%sp@(0)
  ef0fca:	544d           	addqw #2,%a5
  ef0fcc:	7000           	moveq #0,%d0
  ef0fce:	608e           	bras 0xef0f5e
  ef0fd0:	4efa f1e4      	jmp %pc@(0xef01b6)
  ef0fd4:	4e56 ffd8      	linkw %fp,#-40
  ef0fd8:	2e8d           	movel %a5,%sp@
  ef0fda:	4ab8 04b0      	tstl 0x4b0
  ef0fde:	6616           	bnes 0xef0ff6
  ef0fe0:	4ab8 049c      	tstl 0x49c
  ef0fe4:	6610           	bnes 0xef0ff6
  ef0fe6:	4ab8 04a0      	tstl 0x4a0
  ef0fea:	660a           	bnes 0xef0ff6
  ef0fec:	4879 00ef 6cc0 	pea 0xef6cc0
  ef0ff2:	6000 00c0      	braw 0xef10b4
  ef0ff6:	4879 00ef 6ce4 	pea 0xef6ce4
  ef0ffc:	4eba 105e      	jsr %pc@(0xef205c)
  ef1000:	584f           	addqw #4,%sp
  ef1002:	4ab8 04b0      	tstl 0x4b0
  ef1006:	660e           	bnes 0xef1016
  ef1008:	4879 00ef 6cfe 	pea 0xef6cfe
  ef100e:	4eba 104c      	jsr %pc@(0xef205c)
  ef1012:	584f           	addqw #4,%sp
  ef1014:	602a           	bras 0xef1040
  ef1016:	2f38 04b0      	movel 0x4b0,%sp@-
  ef101a:	4879 00ef 6d01 	pea 0xef6d01
  ef1020:	4eba 103a      	jsr %pc@(0xef205c)
  ef1024:	504f           	addqw #8,%sp
  ef1026:	2f38 04bc      	movel 0x4bc,%sp@-
  ef102a:	2f38 04b4      	movel 0x4b4,%sp@-
  ef102e:	2f38 04b8      	movel 0x4b8,%sp@-
  ef1032:	4879 00ef 6d0a 	pea 0xef6d0a
  ef1038:	4eba 1022      	jsr %pc@(0xef205c)
  ef103c:	4fef 0010      	lea %sp@(16),%sp
  ef1040:	2f38 049c      	movel 0x49c,%sp@-
  ef1044:	4879 00ef 6d30 	pea 0xef6d30
  ef104a:	4eba 1010      	jsr %pc@(0xef205c)
  ef104e:	504f           	addqw #8,%sp
  ef1050:	0cb8 0000 0001 	cmpil #1,0x49c
  ef1056:	049c 
  ef1058:	670a           	beqs 0xef1064
  ef105a:	4878 0073      	pea 0x73
  ef105e:	4eba 1134      	jsr %pc@(0xef2194)
  ef1062:	584f           	addqw #4,%sp
  ef1064:	4ab8 04a0      	tstl 0x4a0
  ef1068:	6710           	beqs 0xef107a
  ef106a:	2f38 04a0      	movel 0x4a0,%sp@-
  ef106e:	4879 00ef 6d40 	pea 0xef6d40
  ef1074:	4eba 0fe6      	jsr %pc@(0xef205c)
  ef1078:	504f           	addqw #8,%sp
  ef107a:	4879 00ef 6d50 	pea 0xef6d50
  ef1080:	4eba 0fda      	jsr %pc@(0xef205c)
  ef1084:	584f           	addqw #4,%sp
  ef1086:	2a7c 00ef 6c88 	moveal #15690888,%a5
  ef108c:	4aad 0002      	tstl %a5@(2)
  ef1090:	671c           	beqs 0xef10ae
  ef1092:	3015           	movew %a5@,%d0
  ef1094:	2238 0498      	movel 0x498,%d1
  ef1098:	e0a9           	lsrl %d0,%d1
  ef109a:	0801 0000      	btst #0,%d1
  ef109e:	660a           	bnes 0xef10aa
  ef10a0:	2f2d 0002      	movel %a5@(2),%sp@-
  ef10a4:	4eba 0fb6      	jsr %pc@(0xef205c)
  ef10a8:	584f           	addqw #4,%sp
  ef10aa:	5c8d           	addql #6,%a5
  ef10ac:	60de           	bras 0xef108c
  ef10ae:	4879 00ef 6d5f 	pea 0xef6d5f
  ef10b4:	4eba 0fa6      	jsr %pc@(0xef205c)
  ef10b8:	584f           	addqw #4,%sp
  ef10ba:	486e ffe0      	pea %fp@(-32)
  ef10be:	4878 0001      	pea 0x1
  ef10c2:	4eba 0948      	jsr %pc@(0xef1a0c)
  ef10c6:	504f           	addqw #8,%sp
  ef10c8:	7201           	moveq #1,%d1
  ef10ca:	b081           	cmpl %d1,%d0
  ef10cc:	6608           	bnes 0xef10d6
  ef10ce:	0c2e 0001 ffe1 	cmpib #1,%fp@(-31)
  ef10d4:	670c           	beqs 0xef10e2
  ef10d6:	4879 00ef 6d9a 	pea 0xef6d9a
  ef10dc:	4eba 0f7e      	jsr %pc@(0xef205c)
  ef10e0:	584f           	addqw #4,%sp
  ef10e2:	4a38 05b5      	tstb 0x5b5
  ef10e6:	660c           	bnes 0xef10f4
  ef10e8:	4879 00ef 6dac 	pea 0xef6dac
  ef10ee:	4eba 0f6c      	jsr %pc@(0xef205c)
  ef10f2:	584f           	addqw #4,%sp
  ef10f4:	4879 00ef 6dae 	pea 0xef6dae
  ef10fa:	4eba 0f60      	jsr %pc@(0xef205c)
  ef10fe:	584f           	addqw #4,%sp
  ef1100:	4a38 05b5      	tstb 0x5b5
  ef1104:	660c           	bnes 0xef1112
  ef1106:	4879 00ef 6ded 	pea 0xef6ded
  ef110c:	4eba 0f4e      	jsr %pc@(0xef205c)
  ef1110:	584f           	addqw #4,%sp
  ef1112:	4879 00ef 6b8c 	pea 0xef6b8c
  ef1118:	4879 00ef 6def 	pea 0xef6def
  ef111e:	4eba 0f3c      	jsr %pc@(0xef205c)
  ef1122:	504f           	addqw #8,%sp
  ef1124:	2038 0488      	movel 0x488,%d0
  ef1128:	223c 0010 0000 	movel #1048576,%d1
  ef112e:	4eba 11b6      	jsr %pc@(0xef22e6)
  ef1132:	2d40 ffdc      	movel %d0,%fp@(-36)
  ef1136:	7214           	moveq #20,%d1
  ef1138:	e3a8           	lsll %d1,%d0
  ef113a:	b0b8 0488      	cmpl 0x488,%d0
  ef113e:	660c           	bnes 0xef114c
  ef1140:	2f2e ffdc      	movel %fp@(-36),%sp@-
  ef1144:	4879 00ef 6df8 	pea 0xef6df8
  ef114a:	6010           	bras 0xef115c
  ef114c:	2038 0488      	movel 0x488,%d0
  ef1150:	720a           	moveq #10,%d1
  ef1152:	e2a8           	lsrl %d1,%d0
  ef1154:	2f00           	movel %d0,%sp@-
  ef1156:	4879 00ef 6dfc 	pea 0xef6dfc
  ef115c:	4eba 0efe      	jsr %pc@(0xef205c)
  ef1160:	504f           	addqw #8,%sp
  ef1162:	4879 00ef 6e00 	pea 0xef6e00
  ef1168:	4eba 0ef2      	jsr %pc@(0xef205c)
  ef116c:	584f           	addqw #4,%sp
  ef116e:	4a38 05b5      	tstb 0x5b5
  ef1172:	660c           	bnes 0xef1180
  ef1174:	4879 00ef 6e14 	pea 0xef6e14
  ef117a:	4eba 0ee0      	jsr %pc@(0xef205c)
  ef117e:	584f           	addqw #4,%sp
  ef1180:	7000           	moveq #0,%d0
  ef1182:	102e ffe7      	moveb %fp@(-25),%d0
  ef1186:	2f00           	movel %d0,%sp@-
  ef1188:	7000           	moveq #0,%d0
  ef118a:	102e ffe6      	moveb %fp@(-26),%d0
  ef118e:	2f00           	movel %d0,%sp@-
  ef1190:	7000           	moveq #0,%d0
  ef1192:	102e ffe5      	moveb %fp@(-27),%d0
  ef1196:	2f00           	movel %d0,%sp@-
  ef1198:	7000           	moveq #0,%d0
  ef119a:	102e ffe4      	moveb %fp@(-28),%d0
  ef119e:	2f00           	movel %d0,%sp@-
  ef11a0:	7000           	moveq #0,%d0
  ef11a2:	102e ffe3      	moveb %fp@(-29),%d0
  ef11a6:	2f00           	movel %d0,%sp@-
  ef11a8:	7000           	moveq #0,%d0
  ef11aa:	102e ffe2      	moveb %fp@(-30),%d0
  ef11ae:	2f00           	movel %d0,%sp@-
  ef11b0:	202e ffec      	movel %fp@(-20),%d0
  ef11b4:	e088           	lsrl #8,%d0
  ef11b6:	0280 00ff ffff 	andil #16777215,%d0
  ef11bc:	2f00           	movel %d0,%sp@-
  ef11be:	4879 00ef 6e16 	pea 0xef6e16
  ef11c4:	4eba 0e96      	jsr %pc@(0xef205c)
  ef11c8:	4fef 0020      	lea %sp@(32),%sp
  ef11cc:	4a38 05b5      	tstb 0x5b5
  ef11d0:	6618           	bnes 0xef11ea
  ef11d2:	0cb8 0000 0003 	cmpil #3,0x654
  ef11d8:	0654 
  ef11da:	6d0e           	blts 0xef11ea
  ef11dc:	2038 0654      	movel 0x654,%d0
  ef11e0:	5780           	subql #3,%d0
  ef11e2:	2f00           	movel %d0,%sp@-
  ef11e4:	4eba 2b32      	jsr %pc@(0xef3d18)
  ef11e8:	584f           	addqw #4,%sp
  ef11ea:	4879 00ef 6e46 	pea 0xef6e46
  ef11f0:	4eba 0e6a      	jsr %pc@(0xef205c)
  ef11f4:	584f           	addqw #4,%sp
  ef11f6:	4eba 1518      	jsr %pc@(0xef2710)
  ef11fa:	2a6e ffd8      	moveal %fp@(-40),%a5
  ef11fe:	4e5e           	unlk %fp
  ef1200:	4e75           	rts
  ef1202:	0000 4e56      	orib #86,%d0
  ef1206:	fff0           	0177760
  ef1208:	48d7 00f0      	moveml %d4-%d7,%sp@
  ef120c:	2e2e 0008      	movel %fp@(8),%d7
  ef1210:	4eba 0da0      	jsr %pc@(0xef1fb2)
  ef1214:	1c00           	moveb %d0,%d6
  ef1216:	7a20           	moveq #32,%d5
  ef1218:	b005           	cmpb %d5,%d0
  ef121a:	6606           	bnes 0xef1222
  ef121c:	4eba 0d68      	jsr %pc@(0xef1f86)
  ef1220:	60ee           	bras 0xef1210
  ef1222:	7000           	moveq #0,%d0
  ef1224:	1006           	moveb %d6,%d0
  ef1226:	2f00           	movel %d0,%sp@-
  ef1228:	4eba 0dda      	jsr %pc@(0xef2004)
  ef122c:	584f           	addqw #4,%sp
  ef122e:	4a80           	tstl %d0
  ef1230:	6c00 00cc      	bgew 0xef12fe
  ef1234:	4879 00ef 6f94 	pea 0xef6f94
  ef123a:	4eba 0e20      	jsr %pc@(0xef205c)
  ef123e:	584f           	addqw #4,%sp
  ef1240:	202e 000c      	movel %fp@(12),%d0
  ef1244:	7a04           	moveq #4,%d5
  ef1246:	b085           	cmpl %d5,%d0
  ef1248:	6712           	beqs 0xef125c
  ef124a:	7a08           	moveq #8,%d5
  ef124c:	b085           	cmpl %d5,%d0
  ef124e:	6718           	beqs 0xef1268
  ef1250:	2f2e 0010      	movel %fp@(16),%sp@-
  ef1254:	2f07           	movel %d7,%sp@-
  ef1256:	4eba 0820      	jsr %pc@(0xef1a78)
  ef125a:	6016           	bras 0xef1272
  ef125c:	2f2e 0010      	movel %fp@(16),%sp@-
  ef1260:	2f07           	movel %d7,%sp@-
  ef1262:	4eba 0830      	jsr %pc@(0xef1a94)
  ef1266:	600a           	bras 0xef1272
  ef1268:	2f2e 0010      	movel %fp@(16),%sp@-
  ef126c:	2f07           	movel %d7,%sp@-
  ef126e:	4eba 0840      	jsr %pc@(0xef1ab0)
  ef1272:	504f           	addqw #8,%sp
  ef1274:	2a00           	movel %d0,%d5
  ef1276:	2f2e 000c      	movel %fp@(12),%sp@-
  ef127a:	2f05           	movel %d5,%sp@-
  ef127c:	4eba 0eca      	jsr %pc@(0xef2148)
  ef1280:	504f           	addqw #8,%sp
  ef1282:	720d           	moveq #13,%d1
  ef1284:	bc01           	cmpb %d1,%d6
  ef1286:	6736           	beqs 0xef12be
  ef1288:	4eba 0cfc      	jsr %pc@(0xef1f86)
  ef128c:	4eba 0d24      	jsr %pc@(0xef1fb2)
  ef1290:	1c00           	moveb %d0,%d6
  ef1292:	7220           	moveq #32,%d1
  ef1294:	b001           	cmpb %d1,%d0
  ef1296:	67f0           	beqs 0xef1288
  ef1298:	7000           	moveq #0,%d0
  ef129a:	1006           	moveb %d6,%d0
  ef129c:	2f00           	movel %d0,%sp@-
  ef129e:	4eba 0d64      	jsr %pc@(0xef2004)
  ef12a2:	584f           	addqw #4,%sp
  ef12a4:	4a80           	tstl %d0
  ef12a6:	6c56           	bges 0xef12fe
  ef12a8:	4878 000a      	pea 0xa
  ef12ac:	4eba 0ee6      	jsr %pc@(0xef2194)
  ef12b0:	584f           	addqw #4,%sp
  ef12b2:	720d           	moveq #13,%d1
  ef12b4:	bc01           	cmpb %d1,%d6
  ef12b6:	6738           	beqs 0xef12f0
  ef12b8:	7001           	moveq #1,%d0
  ef12ba:	6000 00c6      	braw 0xef1382
  ef12be:	4879 00ef 6f97 	pea 0xef6f97
  ef12c4:	4eba 0d96      	jsr %pc@(0xef205c)
  ef12c8:	584f           	addqw #4,%sp
  ef12ca:	4878 0001      	pea 0x1
  ef12ce:	4eba 0c18      	jsr %pc@(0xef1ee8)
  ef12d2:	584f           	addqw #4,%sp
  ef12d4:	4eba 0cdc      	jsr %pc@(0xef1fb2)
  ef12d8:	1c00           	moveb %d0,%d6
  ef12da:	720d           	moveq #13,%d1
  ef12dc:	bc01           	cmpb %d1,%d6
  ef12de:	67d8           	beqs 0xef12b8
  ef12e0:	7000           	moveq #0,%d0
  ef12e2:	1006           	moveb %d6,%d0
  ef12e4:	2f00           	movel %d0,%sp@-
  ef12e6:	4eba 0d1c      	jsr %pc@(0xef2004)
  ef12ea:	584f           	addqw #4,%sp
  ef12ec:	4a80           	tstl %d0
  ef12ee:	6c06           	bges 0xef12f6
  ef12f0:	7000           	moveq #0,%d0
  ef12f2:	6000 008e      	braw 0xef1382
  ef12f6:	4eba 0cd0      	jsr %pc@(0xef1fc8)
  ef12fa:	2a00           	movel %d0,%d5
  ef12fc:	6044           	bras 0xef1342
  ef12fe:	4eba 0cc8      	jsr %pc@(0xef1fc8)
  ef1302:	2a00           	movel %d0,%d5
  ef1304:	4879 00ef 6f9a 	pea 0xef6f9a
  ef130a:	4eba 0d50      	jsr %pc@(0xef205c)
  ef130e:	584f           	addqw #4,%sp
  ef1310:	2f2e 000c      	movel %fp@(12),%sp@-
  ef1314:	2f05           	movel %d5,%sp@-
  ef1316:	4eba 0e30      	jsr %pc@(0xef2148)
  ef131a:	504f           	addqw #8,%sp
  ef131c:	4878 000a      	pea 0xa
  ef1320:	4eba 0e72      	jsr %pc@(0xef2194)
  ef1324:	584f           	addqw #4,%sp
  ef1326:	4eba 0c8a      	jsr %pc@(0xef1fb2)
  ef132a:	1c00           	moveb %d0,%d6
  ef132c:	7820           	moveq #32,%d4
  ef132e:	b004           	cmpb %d4,%d0
  ef1330:	6606           	bnes 0xef1338
  ef1332:	4eba 0c52      	jsr %pc@(0xef1f86)
  ef1336:	60ee           	bras 0xef1326
  ef1338:	780d           	moveq #13,%d4
  ef133a:	bc04           	cmpb %d4,%d6
  ef133c:	6604           	bnes 0xef1342
  ef133e:	7800           	moveq #0,%d4
  ef1340:	6002           	bras 0xef1344
  ef1342:	7801           	moveq #1,%d4
  ef1344:	202e 000c      	movel %fp@(12),%d0
  ef1348:	7204           	moveq #4,%d1
  ef134a:	b081           	cmpl %d1,%d0
  ef134c:	6714           	beqs 0xef1362
  ef134e:	7208           	moveq #8,%d1
  ef1350:	b081           	cmpl %d1,%d0
  ef1352:	671c           	beqs 0xef1370
  ef1354:	2f05           	movel %d5,%sp@-
  ef1356:	2f2e 0010      	movel %fp@(16),%sp@-
  ef135a:	2f07           	movel %d7,%sp@-
  ef135c:	4eba 076c      	jsr %pc@(0xef1aca)
  ef1360:	601a           	bras 0xef137c
  ef1362:	2f05           	movel %d5,%sp@-
  ef1364:	2f2e 0010      	movel %fp@(16),%sp@-
  ef1368:	2f07           	movel %d7,%sp@-
  ef136a:	4eba 077c      	jsr %pc@(0xef1ae8)
  ef136e:	600c           	bras 0xef137c
  ef1370:	2f05           	movel %d5,%sp@-
  ef1372:	2f2e 0010      	movel %fp@(16),%sp@-
  ef1376:	2f07           	movel %d7,%sp@-
  ef1378:	4eba 078c      	jsr %pc@(0xef1b06)
  ef137c:	4fef 000c      	lea %sp@(12),%sp
  ef1380:	2004           	movel %d4,%d0
  ef1382:	4cee 00f0 fff0 	moveml %fp@(-16),%d4-%d7
  ef1388:	4e5e           	unlk %fp
  ef138a:	4e75           	rts
  ef138c:	4e56 fff8      	linkw %fp,#-8
  ef1390:	48d7 3000      	moveml %a4-%a5,%sp@
  ef1394:	2a6e 000c      	moveal %fp@(12),%a5
  ef1398:	4eba 0c2e      	jsr %pc@(0xef1fc8)
  ef139c:	720f           	moveq #15,%d1
  ef139e:	c081           	andl %d1,%d0
  ef13a0:	e580           	asll #2,%d0
  ef13a2:	dbc0           	addal %d0,%a5
  ef13a4:	200d           	movel %a5,%d0
  ef13a6:	90ae 0008      	subl %fp@(8),%d0
  ef13aa:	e480           	asrl #2,%d0
  ef13ac:	2200           	movel %d0,%d1
  ef13ae:	d281           	addl %d1,%d1
  ef13b0:	d081           	addl %d1,%d0
  ef13b2:	0680 00ef 6f18 	addil #15691544,%d0
  ef13b8:	2840           	moveal %d0,%a4
  ef13ba:	b9fc 00ef 6f60 	cmpal #15691616,%a4
  ef13c0:	6424           	bccs 0xef13e6
  ef13c2:	4854           	pea %a4@
  ef13c4:	4eba 0c96      	jsr %pc@(0xef205c)
  ef13c8:	584f           	addqw #4,%sp
  ef13ca:	4878 0005      	pea 0x5
  ef13ce:	4878 0008      	pea 0x8
  ef13d2:	4855           	pea %a5@
  ef13d4:	6100 fe2e      	bsrw 0xef1204
  ef13d8:	4fef 000c      	lea %sp@(12),%sp
  ef13dc:	4a80           	tstl %d0
  ef13de:	6706           	beqs 0xef13e6
  ef13e0:	568c           	addql #3,%a4
  ef13e2:	588d           	addql #4,%a5
  ef13e4:	60d4           	bras 0xef13ba
  ef13e6:	4cee 3000 fff8 	moveml %fp@(-8),%a4-%a5
  ef13ec:	4e5e           	unlk %fp
  ef13ee:	4e75           	rts
  ef13f0:	4e56 ffe8      	linkw %fp,#-24
  ef13f4:	48d7 00f0      	moveml %d4-%d7,%sp@
  ef13f8:	302e 0062      	movew %fp@(98),%d0
  ef13fc:	0800 000d      	btst #13,%d0
  ef1400:	6704           	beqs 0xef1406
  ef1402:	7a05           	moveq #5,%d5
  ef1404:	6002           	bras 0xef1408
  ef1406:	7a01           	moveq #1,%d5
  ef1408:	302e 0068      	movew %fp@(104),%d0
  ef140c:	48c0           	extl %d0
  ef140e:	0c80 0000 00b8 	cmpil #184,%d0
  ef1414:	6200 01a2      	bhiw 0xef15b8
  ef1418:	41fa 01b2      	lea %pc@(0xef15cc),%a0
  ef141c:	7208           	moveq #8,%d1
  ef141e:	b018           	cmpb %a0@+,%d0
  ef1420:	54c9 fffc      	dbcc %d1,0xef141e
  ef1424:	6600 0192      	bnew 0xef15b8
  ef1428:	d241           	addw %d1,%d1
  ef142a:	303b 1006      	movew %pc@(0xef1432,%d1:w),%d0
  ef142e:	4efb 0002      	jmp %pc@(0xef1432,%d0:w)
  ef1432:	0078 0016 0024 	oriw #22,0x24
  ef1438:	005e 00ac      	oriw #172,%fp@+
  ef143c:	013a 0186      	btst %d0,%pc@(0xef15c4)
  ef1440:	009c 01a4 6000 	oril #27549696,%a4@+
  ef1446:	0190           	bclr %d0,%a0@
  ef1448:	4878 ffff      	pea 0xffffffff
  ef144c:	4eba f088      	jsr %pc@(0xef04d6)
  ef1450:	584f           	addqw #4,%sp
  ef1452:	6000 0182      	braw 0xef15d6
  ef1456:	4878 ffff      	pea 0xffffffff
  ef145a:	4eba f07a      	jsr %pc@(0xef04d6)
  ef145e:	584f           	addqw #4,%sp
  ef1460:	4879 00ef 6ec8 	pea 0xef6ec8
  ef1466:	4eba f440      	jsr %pc@(0xef08a8)
  ef146a:	584f           	addqw #4,%sp
  ef146c:	4879 00ef 6f04 	pea 0xef6f04
  ef1472:	4eba f434      	jsr %pc@(0xef08a8)
  ef1476:	584f           	addqw #4,%sp
  ef1478:	2f38 0522      	movel 0x522,%sp@-
  ef147c:	4eba 130e      	jsr %pc@(0xef278c)
  ef1480:	584f           	addqw #4,%sp
  ef1482:	2c00           	movel %d0,%d6
  ef1484:	6f00 0150      	blew 0xef15d6
  ef1488:	2d46 0064      	movel %d6,%fp@(100)
  ef148c:	6000 0248      	braw 0xef16d6
  ef1490:	4879 00ef 6f9f 	pea 0xef6f9f
  ef1496:	4eba 0bc4      	jsr %pc@(0xef205c)
  ef149a:	584f           	addqw #4,%sp
  ef149c:	4878 ffff      	pea 0xffffffff
  ef14a0:	4eba f034      	jsr %pc@(0xef04d6)
  ef14a4:	584f           	addqw #4,%sp
  ef14a6:	6000 012e      	braw 0xef15d6
  ef14aa:	4878 ffff      	pea 0xffffffff
  ef14ae:	4eba f026      	jsr %pc@(0xef04d6)
  ef14b2:	584f           	addqw #4,%sp
  ef14b4:	4879 00ef 6fb1 	pea 0xef6fb1
  ef14ba:	4eba 0ba0      	jsr %pc@(0xef205c)
  ef14be:	584f           	addqw #4,%sp
  ef14c0:	21fc 0000 04d0 	movel #1232,0x522
  ef14c6:	0522 
  ef14c8:	4238 04d0      	clrb 0x4d0
  ef14cc:	6092           	bras 0xef1460
  ef14ce:	4879 00ef 6fcb 	pea 0xef6fcb
  ef14d4:	4eba 0b86      	jsr %pc@(0xef205c)
  ef14d8:	584f           	addqw #4,%sp
  ef14da:	6000 00b6      	braw 0xef1592
  ef14de:	0838 0007 047f 	btst #7,0x47f
  ef14e4:	6608           	bnes 0xef14ee
  ef14e6:	4879 00ef 6fd2 	pea 0xef6fd2
  ef14ec:	600e           	bras 0xef14fc
  ef14ee:	0838 0003 047f 	btst #3,0x47f
  ef14f4:	670c           	beqs 0xef1502
  ef14f6:	4879 00ef 6fe0 	pea 0xef6fe0
  ef14fc:	4eba 0b5e      	jsr %pc@(0xef205c)
  ef1500:	584f           	addqw #4,%sp
  ef1502:	0838 0006 047f 	btst #6,0x47f
  ef1508:	670c           	beqs 0xef1516
  ef150a:	4879 00ef 6fec 	pea 0xef6fec
  ef1510:	4eba 0b4a      	jsr %pc@(0xef205c)
  ef1514:	584f           	addqw #4,%sp
  ef1516:	0838 0002 047f 	btst #2,0x47f
  ef151c:	670c           	beqs 0xef152a
  ef151e:	4879 00ef 6ff1 	pea 0xef6ff1
  ef1524:	4eba 0b36      	jsr %pc@(0xef205c)
  ef1528:	584f           	addqw #4,%sp
  ef152a:	0838 0001 047f 	btst #1,0x47f
  ef1530:	6722           	beqs 0xef1554
  ef1532:	0838 0000 047f 	btst #0,0x47f
  ef1538:	660c           	bnes 0xef1546
  ef153a:	4879 00ef 6ffa 	pea 0xef6ffa
  ef1540:	4eba 0b1a      	jsr %pc@(0xef205c)
  ef1544:	584f           	addqw #4,%sp
  ef1546:	4879 00ef 7006 	pea 0xef7006
  ef154c:	4eba 0b0e      	jsr %pc@(0xef205c)
  ef1550:	584f           	addqw #4,%sp
  ef1552:	6010           	bras 0xef1564
  ef1554:	0838 0000 047f 	btst #0,0x47f
  ef155a:	6708           	beqs 0xef1564
  ef155c:	4879 00ef 700e 	pea 0xef700e
  ef1562:	60dc           	bras 0xef1540
  ef1564:	4879 00ef 701a 	pea 0xef701a
  ef156a:	6006           	bras 0xef1572
  ef156c:	4879 00ef 701f 	pea 0xef701f
  ef1572:	4eba 0ae8      	jsr %pc@(0xef205c)
  ef1576:	584f           	addqw #4,%sp
  ef1578:	4879 00ef 7028 	pea 0xef7028
  ef157e:	4eba 0adc      	jsr %pc@(0xef205c)
  ef1582:	584f           	addqw #4,%sp
  ef1584:	4878 0008      	pea 0x8
  ef1588:	2f38 040a      	movel 0x40a,%sp@-
  ef158c:	4eba 0bba      	jsr %pc@(0xef2148)
  ef1590:	504f           	addqw #8,%sp
  ef1592:	4879 00ef 7036 	pea 0xef7036
  ef1598:	4eba 0ac2      	jsr %pc@(0xef205c)
  ef159c:	584f           	addqw #4,%sp
  ef159e:	4878 0006      	pea 0x6
  ef15a2:	2f2e 0064      	movel %fp@(100),%sp@-
  ef15a6:	4eba 0ba0      	jsr %pc@(0xef2148)
  ef15aa:	504f           	addqw #8,%sp
  ef15ac:	4878 000a      	pea 0xa
  ef15b0:	4eba 0be2      	jsr %pc@(0xef2194)
  ef15b4:	584f           	addqw #4,%sp
  ef15b6:	601e           	bras 0xef15d6
  ef15b8:	302e 0068      	movew %fp@(104),%d0
  ef15bc:	48c0           	extl %d0
  ef15be:	2f00           	movel %d0,%sp@-
  ef15c0:	4879 00ef 703b 	pea 0xef703b
  ef15c6:	4eba 0a94      	jsr %pc@(0xef205c)
  ef15ca:	60c4           	bras 0xef1590
  ef15cc:	b881           	cmpl %d1,%d4
  ef15ce:	240c           	movel %a4,%d2
  ef15d0:	0803 0201      	btst #1,%d3
  ef15d4:	0000 426e      	orib #110,%d0
  ef15d8:	0060 1d78      	oriw #7544,%a0@-
  ef15dc:	05a1           	bclr %d2,%a1@-
  ef15de:	fffb           	0177773
  ef15e0:	7201           	moveq #1,%d1
  ef15e2:	21c1 059e      	movel %d1,0x59e
  ef15e6:	4878 003e      	pea 0x3e
  ef15ea:	4eba 0ba8      	jsr %pc@(0xef2194)
  ef15ee:	584f           	addqw #4,%sp
  ef15f0:	4878 0001      	pea 0x1
  ef15f4:	4eba 08f2      	jsr %pc@(0xef1ee8)
  ef15f8:	584f           	addqw #4,%sp
  ef15fa:	4eba 098a      	jsr %pc@(0xef1f86)
  ef15fe:	1e00           	moveb %d0,%d7
  ef1600:	6706           	beqs 0xef1608
  ef1602:	7230           	moveq #48,%d1
  ef1604:	be01           	cmpb %d1,%d7
  ef1606:	6df2           	blts 0xef15fa
  ef1608:	4eba 09a8      	jsr %pc@(0xef1fb2)
  ef160c:	0c00 0020      	cmpib #32,%d0
  ef1610:	6606           	bnes 0xef1618
  ef1612:	4eba 0972      	jsr %pc@(0xef1f86)
  ef1616:	60f0           	bras 0xef1608
  ef1618:	4a07           	tstb %d7
  ef161a:	67ca           	beqs 0xef15e6
  ef161c:	1007           	moveb %d7,%d0
  ef161e:	0280 0000 005f 	andil #95,%d0
  ef1624:	0480 0000 0041 	subil #65,%d0
  ef162a:	0c80 0000 0014 	cmpil #20,%d0
  ef1630:	6200 0364      	bhiw 0xef1996
  ef1634:	d040           	addw %d0,%d0
  ef1636:	303b 0006      	movew %pc@(0xef163e,%d0:w),%d0
  ef163a:	4efb 0002      	jmp %pc@(0xef163e,%d0:w)
  ef163e:	002a 0032 007a 	orib #50,%a2@(122)
  ef1644:	00ae 00b6 0358 	oril #11928408,%fp@(232)
  ef164a:	00e8 
  ef164c:	0358           	bchg %d1,%a0@+
  ef164e:	0358           	bchg %d1,%a0@+
  ef1650:	0358           	bchg %d1,%a0@+
  ef1652:	0136 01a2 01d4 	btst %d0,@(000001d4,%d0:w)@(00000358)
  ef1658:	0358 
  ef165a:	0242 0274      	andiw #628,%d2
  ef165e:	0358           	bchg %d1,%a0@+
  ef1660:	0304           	btst %d1,%d4
  ef1662:	032a 0358      	btst %d1,%a2@(856)
  ef1666:	0350           	bchg %d1,%a0@
  ef1668:	486e 0028      	pea %fp@(40)
  ef166c:	6000 02d8      	braw 0xef1946
  ef1670:	2078 0526      	moveal 0x526,%a0
  ef1674:	4228 04d0      	clrb %a0@(1232)
  ef1678:	4eba 0938      	jsr %pc@(0xef1fb2)
  ef167c:	7221           	moveq #33,%d1
  ef167e:	b001           	cmpb %d1,%d0
  ef1680:	662e           	bnes 0xef16b0
  ef1682:	4eba 0902      	jsr %pc@(0xef1f86)
  ef1686:	4879 00ef 6ec8 	pea 0xef6ec8
  ef168c:	4eba f21a      	jsr %pc@(0xef08a8)
  ef1690:	584f           	addqw #4,%sp
  ef1692:	4879 00ef 6f04 	pea 0xef6f04
  ef1698:	4eba f20e      	jsr %pc@(0xef08a8)
  ef169c:	584f           	addqw #4,%sp
  ef169e:	2f38 0522      	movel 0x522,%sp@-
  ef16a2:	4eba 10e8      	jsr %pc@(0xef278c)
  ef16a6:	584f           	addqw #4,%sp
  ef16a8:	2d40 0064      	movel %d0,%fp@(100)
  ef16ac:	6000 ff38      	braw 0xef15e6
  ef16b0:	4eba ebb0      	jsr %pc@(0xef0262)
  ef16b4:	6000 ff30      	braw 0xef15e6
  ef16b8:	4eba 08f8      	jsr %pc@(0xef1fb2)
  ef16bc:	0280 0000 00ff 	andil #255,%d0
  ef16c2:	2f00           	movel %d0,%sp@-
  ef16c4:	4eba 093e      	jsr %pc@(0xef2004)
  ef16c8:	584f           	addqw #4,%sp
  ef16ca:	4a80           	tstl %d0
  ef16cc:	6d08           	blts 0xef16d6
  ef16ce:	4eba 08f8      	jsr %pc@(0xef1fc8)
  ef16d2:	2d40 0064      	movel %d0,%fp@(100)
  ef16d6:	102e fffb      	moveb %fp@(-5),%d0
  ef16da:	4880           	extw %d0
  ef16dc:	48c0           	extl %d0
  ef16de:	21c0 059e      	movel %d0,0x59e
  ef16e2:	4cee 00f0 ffe8 	moveml %fp@(-24),%d4-%d7
  ef16e8:	4e5e           	unlk %fp
  ef16ea:	4e75           	rts
  ef16ec:	486e 0008      	pea %fp@(8)
  ef16f0:	6000 0254      	braw 0xef1946
  ef16f4:	4eba 08d2      	jsr %pc@(0xef1fc8)
  ef16f8:	0280 00ff fffe 	andil #16777214,%d0
  ef16fe:	2c00           	movel %d0,%d6
  ef1700:	4878 0006      	pea 0x6
  ef1704:	2f06           	movel %d6,%sp@-
  ef1706:	4eba 0a40      	jsr %pc@(0xef2148)
  ef170a:	504f           	addqw #8,%sp
  ef170c:	2f05           	movel %d5,%sp@-
  ef170e:	4878 0004      	pea 0x4
  ef1712:	2f06           	movel %d6,%sp@-
  ef1714:	6100 faee      	bsrw 0xef1204
  ef1718:	4fef 000c      	lea %sp@(12),%sp
  ef171c:	4a80           	tstl %d0
  ef171e:	6700 fec6      	beqw 0xef15e6
  ef1722:	5486           	addql #2,%d6
  ef1724:	60da           	bras 0xef1700
  ef1726:	4eba 088a      	jsr %pc@(0xef1fb2)
  ef172a:	0280 0000 00ff 	andil #255,%d0
  ef1730:	2f00           	movel %d0,%sp@-
  ef1732:	4eba 08d0      	jsr %pc@(0xef2004)
  ef1736:	584f           	addqw #4,%sp
  ef1738:	4a80           	tstl %d0
  ef173a:	6d0a           	blts 0xef1746
  ef173c:	4eba 088a      	jsr %pc@(0xef1fc8)
  ef1740:	2d40 fffc      	movel %d0,%fp@(-4)
  ef1744:	6006           	bras 0xef174c
  ef1746:	2d6e 0064 fffc 	movel %fp@(100),%fp@(-4)
  ef174c:	2078 0526      	moveal 0x526,%a0
  ef1750:	4228 04d0      	clrb %a0@(1232)
  ef1754:	4eba 085c      	jsr %pc@(0xef1fb2)
  ef1758:	7220           	moveq #32,%d1
  ef175a:	b001           	cmpb %d1,%d0
  ef175c:	6606           	bnes 0xef1764
  ef175e:	4eba 0826      	jsr %pc@(0xef1f86)
  ef1762:	60f0           	bras 0xef1754
  ef1764:	2f38 0522      	movel 0x522,%sp@-
  ef1768:	206e fffc      	moveal %fp@(-4),%a0
  ef176c:	4e90           	jsr %a0@
  ef176e:	584f           	addqw #4,%sp
  ef1770:	6000 fe74      	braw 0xef15e6
  ef1774:	4eba 0852      	jsr %pc@(0xef1fc8)
  ef1778:	4a80           	tstl %d0
  ef177a:	6726           	beqs 0xef17a2
  ef177c:	7201           	moveq #1,%d1
  ef177e:	b081           	cmpl %d1,%d0
  ef1780:	673e           	beqs 0xef17c0
  ef1782:	720b           	moveq #11,%d1
  ef1784:	b081           	cmpl %d1,%d0
  ef1786:	673c           	beqs 0xef17c4
  ef1788:	2078 0522      	moveal 0x522,%a0
  ef178c:	0c10 0002      	cmpib #2,%a0@
  ef1790:	663a           	bnes 0xef17cc
  ef1792:	4879 00ef 6f60 	pea 0xef6f60
  ef1798:	4eba 08c2      	jsr %pc@(0xef205c)
  ef179c:	584f           	addqw #4,%sp
  ef179e:	6000 fe46      	braw 0xef15e6
  ef17a2:	4eba ed50      	jsr %pc@(0xef04f4)
  ef17a6:	4a38 05b8      	tstb 0x5b8
  ef17aa:	6700 fe3a      	beqw 0xef15e6
  ef17ae:	2f38 0654      	movel 0x654,%sp@-
  ef17b2:	2f38 0650      	movel 0x650,%sp@-
  ef17b6:	4eba 1968      	jsr %pc@(0xef3120)
  ef17ba:	504f           	addqw #8,%sp
  ef17bc:	6000 fe28      	braw 0xef15e6
  ef17c0:	4eba eaaa      	jsr %pc@(0xef026c)
  ef17c4:	4eba f80e      	jsr %pc@(0xef0fd4)
  ef17c8:	6000 fe1c      	braw 0xef15e6
  ef17cc:	33fc ffff 00ee 	movew #-1,0xee0002
  ef17d2:	0002 
  ef17d4:	4eba ed1e      	jsr %pc@(0xef04f4)
  ef17d8:	4eba e8f6      	jsr %pc@(0xef00d0)
  ef17dc:	6000 fe08      	braw 0xef15e6
  ef17e0:	4eba 07e6      	jsr %pc@(0xef1fc8)
  ef17e4:	0280 00ff fffe 	andil #16777214,%d0
  ef17ea:	2c00           	movel %d0,%d6
  ef17ec:	4878 0006      	pea 0x6
  ef17f0:	2f06           	movel %d6,%sp@-
  ef17f2:	4eba 0954      	jsr %pc@(0xef2148)
  ef17f6:	504f           	addqw #8,%sp
  ef17f8:	2f05           	movel %d5,%sp@-
  ef17fa:	4878 0008      	pea 0x8
  ef17fe:	2f06           	movel %d6,%sp@-
  ef1800:	6100 fa02      	bsrw 0xef1204
  ef1804:	4fef 000c      	lea %sp@(12),%sp
  ef1808:	4a80           	tstl %d0
  ef180a:	6700 fdda      	beqw 0xef15e6
  ef180e:	5886           	addql #4,%d6
  ef1810:	60da           	bras 0xef17ec
  ef1812:	7c04           	moveq #4,%d6
  ef1814:	ba86           	cmpl %d6,%d5
  ef1816:	6d06           	blts 0xef181e
  ef1818:	2f2e 0058      	movel %fp@(88),%sp@-
  ef181c:	6004           	bras 0xef1822
  ef181e:	2f2e 005c      	movel %fp@(92),%sp@-
  ef1822:	4eba f2f4      	jsr %pc@(0xef0b18)
  ef1826:	584f           	addqw #4,%sp
  ef1828:	4eba 079e      	jsr %pc@(0xef1fc8)
  ef182c:	0280 00ff 8000 	andil #16744448,%d0
  ef1832:	2c00           	movel %d0,%d6
  ef1834:	0c86 0100 0000 	cmpil #16777216,%d6
  ef183a:	6c00 0114      	bgew 0xef1950
  ef183e:	4879 00ef 7049 	pea 0xef7049
  ef1844:	4eba 0816      	jsr %pc@(0xef205c)
  ef1848:	584f           	addqw #4,%sp
  ef184a:	4878 0006      	pea 0x6
  ef184e:	2f06           	movel %d6,%sp@-
  ef1850:	4eba 08f6      	jsr %pc@(0xef2148)
  ef1854:	504f           	addqw #8,%sp
  ef1856:	4878 0003      	pea 0x3
  ef185a:	4878 0002      	pea 0x2
  ef185e:	2006           	movel %d6,%d0
  ef1860:	0280 ffff f800 	andil #-2048,%d0
  ef1866:	5a80           	addql #5,%d0
  ef1868:	2f00           	movel %d0,%sp@-
  ef186a:	6100 f998      	bsrw 0xef1204
  ef186e:	4fef 000c      	lea %sp@(12),%sp
  ef1872:	4a80           	tstl %d0
  ef1874:	6700 00da      	beqw 0xef1950
  ef1878:	0686 0000 8000 	addil #32768,%d6
  ef187e:	60b4           	bras 0xef1834
  ef1880:	4eba 0746      	jsr %pc@(0xef1fc8)
  ef1884:	0280 00ff ffff 	andil #16777215,%d0
  ef188a:	2c00           	movel %d0,%d6
  ef188c:	4878 0006      	pea 0x6
  ef1890:	2f06           	movel %d6,%sp@-
  ef1892:	4eba 08b4      	jsr %pc@(0xef2148)
  ef1896:	504f           	addqw #8,%sp
  ef1898:	2f05           	movel %d5,%sp@-
  ef189a:	4878 0002      	pea 0x2
  ef189e:	2f06           	movel %d6,%sp@-
  ef18a0:	6100 f962      	bsrw 0xef1204
  ef18a4:	4fef 000c      	lea %sp@(12),%sp
  ef18a8:	4a80           	tstl %d0
  ef18aa:	6700 fd3a      	beqw 0xef15e6
  ef18ae:	5286           	addql #1,%d6
  ef18b0:	60da           	bras 0xef188c
  ef18b2:	7c04           	moveq #4,%d6
  ef18b4:	ba86           	cmpl %d6,%d5
  ef18b6:	6d06           	blts 0xef18be
  ef18b8:	2f2e 0058      	movel %fp@(88),%sp@-
  ef18bc:	6004           	bras 0xef18c2
  ef18be:	2f2e 005c      	movel %fp@(92),%sp@-
  ef18c2:	4eba f254      	jsr %pc@(0xef0b18)
  ef18c6:	584f           	addqw #4,%sp
  ef18c8:	4eba 06fe      	jsr %pc@(0xef1fc8)
  ef18cc:	0280 00ff f800 	andil #16775168,%d0
  ef18d2:	2c00           	movel %d0,%d6
  ef18d4:	0c86 0100 0000 	cmpil #16777216,%d6
  ef18da:	6c74           	bges 0xef1950
  ef18dc:	4879 00ef 7051 	pea 0xef7051
  ef18e2:	4eba 0778      	jsr %pc@(0xef205c)
  ef18e6:	584f           	addqw #4,%sp
  ef18e8:	4878 0006      	pea 0x6
  ef18ec:	2f06           	movel %d6,%sp@-
  ef18ee:	4eba 0858      	jsr %pc@(0xef2148)
  ef18f2:	504f           	addqw #8,%sp
  ef18f4:	2f06           	movel %d6,%sp@-
  ef18f6:	4eba f154      	jsr %pc@(0xef0a4c)
  ef18fa:	584f           	addqw #4,%sp
  ef18fc:	1800           	moveb %d0,%d4
  ef18fe:	4879 00ef 705a 	pea 0xef705a
  ef1904:	4eba 0756      	jsr %pc@(0xef205c)
  ef1908:	584f           	addqw #4,%sp
  ef190a:	4878 0002      	pea 0x2
  ef190e:	7000           	moveq #0,%d0
  ef1910:	1004           	moveb %d4,%d0
  ef1912:	2f00           	movel %d0,%sp@-
  ef1914:	4eba 0832      	jsr %pc@(0xef2148)
  ef1918:	504f           	addqw #8,%sp
  ef191a:	4878 005d      	pea 0x5d
  ef191e:	4eba 0874      	jsr %pc@(0xef2194)
  ef1922:	584f           	addqw #4,%sp
  ef1924:	4878 0003      	pea 0x3
  ef1928:	4878 0008      	pea 0x8
  ef192c:	2f06           	movel %d6,%sp@-
  ef192e:	6100 f8d4      	bsrw 0xef1204
  ef1932:	4fef 000c      	lea %sp@(12),%sp
  ef1936:	4a80           	tstl %d0
  ef1938:	6716           	beqs 0xef1950
  ef193a:	0686 0000 0800 	addil #2048,%d6
  ef1940:	6092           	bras 0xef18d4
  ef1942:	486e 0044      	pea %fp@(68)
  ef1946:	486e 0008      	pea %fp@(8)
  ef194a:	6100 fa40      	bsrw 0xef138c
  ef194e:	504f           	addqw #8,%sp
  ef1950:	2f2e 005c      	movel %fp@(92),%sp@-
  ef1954:	4eba f1c2      	jsr %pc@(0xef0b18)
  ef1958:	584f           	addqw #4,%sp
  ef195a:	2f2e 0058      	movel %fp@(88),%sp@-
  ef195e:	4eba f1d4      	jsr %pc@(0xef0b34)
  ef1962:	584f           	addqw #4,%sp
  ef1964:	6000 fc80      	braw 0xef15e6
  ef1968:	4eba 065e      	jsr %pc@(0xef1fc8)
  ef196c:	2c00           	movel %d0,%d6
  ef196e:	670c           	beqs 0xef197c
  ef1970:	1006           	moveb %d6,%d0
  ef1972:	7a07           	moveq #7,%d5
  ef1974:	c085           	andl %d5,%d0
  ef1976:	2a00           	movel %d0,%d5
  ef1978:	6000 fc6c      	braw 0xef15e6
  ef197c:	2f05           	movel %d5,%sp@-
  ef197e:	4879 00ef 705d 	pea 0xef705d
  ef1984:	4eba 06d6      	jsr %pc@(0xef205c)
  ef1988:	504f           	addqw #8,%sp
  ef198a:	6000 fc5a      	braw 0xef15e6
  ef198e:	4eba 0216      	jsr %pc@(0xef1ba6)
  ef1992:	6000 fc52      	braw 0xef15e6
  ef1996:	4879 00ef 7069 	pea 0xef7069
  ef199c:	4eba 06be      	jsr %pc@(0xef205c)
  ef19a0:	584f           	addqw #4,%sp
  ef19a2:	6000 fc42      	braw 0xef15e6
  ef19a6:	4e56 0000      	linkw %fp,#0
  ef19aa:	21fc 0000 04d0 	movel #1232,0x522
  ef19b0:	0522 
  ef19b2:	2078 0522      	moveal 0x522,%a0
  ef19b6:	52b8 0522      	addql #1,0x522
  ef19ba:	226e 0008      	moveal %fp@(8),%a1
  ef19be:	52ae 0008      	addql #1,%fp@(8)
  ef19c2:	1091           	moveb %a1@,%a0@
  ef19c4:	66ec           	bnes 0xef19b2
  ef19c6:	21fc 0000 04d0 	movel #1232,0x522
  ef19cc:	0522 
  ef19ce:	4eba e892      	jsr %pc@(0xef0262)
  ef19d2:	4e5e           	unlk %fp
  ef19d4:	4e75           	rts
  ef19d6:	0000 206f      	orib #111,%d0
  ef19da:	0004 222f      	orib #47,%d4
  ef19de:	0008           	010
  ef19e0:	2f02           	movel %d2,%sp@-
  ef19e2:	4e7a 0000      	movec %sfc,%d0
  ef19e6:	243c 0000 0003 	movel #3,%d2
  ef19ec:	4e7b 2000      	movec %d2,%sfc
  ef19f0:	43f8 0008      	lea 0x8,%a1
  ef19f4:	600a           	bras 0xef1a00
  ef19f6:	0e11 2000      	movesb %a1@,%d2
  ef19fa:	10c2           	moveb %d2,%a0@+
  ef19fc:	d2fc 0800      	addaw #2048,%a1
  ef1a00:	51c9 fff4      	dbf %d1,0xef19f6
  ef1a04:	4e7b 0000      	movec %d0,%sfc
  ef1a08:	241f           	movel %sp@+,%d2
  ef1a0a:	4e75           	rts
  ef1a0c:	4e56 fff0      	linkw %fp,#-16
  ef1a10:	2e8d           	movel %a5,%sp@
  ef1a12:	2a6e 000c      	moveal %fp@(12),%a5
  ef1a16:	422e fffb      	clrb %fp@(-5)
  ef1a1a:	4878 0001      	pea 0x1
  ef1a1e:	486e fff7      	pea %fp@(-9)
  ef1a22:	4eba ffb4      	jsr %pc@(0xef19d8)
  ef1a26:	504f           	addqw #8,%sp
  ef1a28:	102e 000b      	moveb %fp@(11),%d0
  ef1a2c:	b02e fff7      	cmpb %fp@(-9),%d0
  ef1a30:	6638           	bnes 0xef1a6a
  ef1a32:	4878 0020      	pea 0x20
  ef1a36:	4855           	pea %a5@
  ef1a38:	4eba ff9e      	jsr %pc@(0xef19d8)
  ef1a3c:	504f           	addqw #8,%sp
  ef1a3e:	2d4d fffc      	movel %a5,%fp@(-4)
  ef1a42:	426e fff4      	clrw %fp@(-12)
  ef1a46:	206e fffc      	moveal %fp@(-4),%a0
  ef1a4a:	1010           	moveb %a0@,%d0
  ef1a4c:	b12e fffb      	eorb %d0,%fp@(-5)
  ef1a50:	52ae fffc      	addql #1,%fp@(-4)
  ef1a54:	526e fff4      	addqw #1,%fp@(-12)
  ef1a58:	0c6e 0010 fff4 	cmpiw #16,%fp@(-12)
  ef1a5e:	6de6           	blts 0xef1a46
  ef1a60:	4a2e fffb      	tstb %fp@(-5)
  ef1a64:	6704           	beqs 0xef1a6a
  ef1a66:	70ff           	moveq #-1,%d0
  ef1a68:	6006           	bras 0xef1a70
  ef1a6a:	7000           	moveq #0,%d0
  ef1a6c:	102e fff7      	moveb %fp@(-9),%d0
  ef1a70:	2a6e fff0      	moveal %fp@(-16),%a5
  ef1a74:	4e5e           	unlk %fp
  ef1a76:	4e75           	rts
  ef1a78:	226f 0008      	moveal %sp@(8),%a1
  ef1a7c:	4e7a 1000      	movec %sfc,%d1
  ef1a80:	4e7b 9000      	movec %a1,%sfc
  ef1a84:	206f 0004      	moveal %sp@(4),%a0
  ef1a88:	7000           	moveq #0,%d0
  ef1a8a:	0e10 0000      	movesb %a0@,%d0
  ef1a8e:	4e7b 1000      	movec %d1,%sfc
  ef1a92:	4e75           	rts
  ef1a94:	226f 0008      	moveal %sp@(8),%a1
  ef1a98:	4e7a 1000      	movec %sfc,%d1
  ef1a9c:	4e7b 9000      	movec %a1,%sfc
  ef1aa0:	206f 0004      	moveal %sp@(4),%a0
  ef1aa4:	7000           	moveq #0,%d0
  ef1aa6:	0e50 0000      	movesw %a0@,%d0
  ef1aaa:	4e7b 1000      	movec %d1,%sfc
  ef1aae:	4e75           	rts
  ef1ab0:	226f 0008      	moveal %sp@(8),%a1
  ef1ab4:	4e7a 1000      	movec %sfc,%d1
  ef1ab8:	4e7b 9000      	movec %a1,%sfc
  ef1abc:	206f 0004      	moveal %sp@(4),%a0
  ef1ac0:	0e90 0000      	movesl %a0@,%d0
  ef1ac4:	4e7b 1000      	movec %d1,%sfc
  ef1ac8:	4e75           	rts
  ef1aca:	226f 0008      	moveal %sp@(8),%a1
  ef1ace:	4e7a 1001      	movec %dfc,%d1
  ef1ad2:	4e7b 9001      	movec %a1,%dfc
  ef1ad6:	206f 0004      	moveal %sp@(4),%a0
  ef1ada:	202f 000c      	movel %sp@(12),%d0
  ef1ade:	0e10 0800      	movesb %d0,%a0@
  ef1ae2:	4e7b 1001      	movec %d1,%dfc
  ef1ae6:	4e75           	rts
  ef1ae8:	226f 0008      	moveal %sp@(8),%a1
  ef1aec:	4e7a 1001      	movec %dfc,%d1
  ef1af0:	4e7b 9001      	movec %a1,%dfc
  ef1af4:	206f 0004      	moveal %sp@(4),%a0
  ef1af8:	202f 000c      	movel %sp@(12),%d0
  ef1afc:	0e50 0800      	movesw %d0,%a0@
  ef1b00:	4e7b 1001      	movec %d1,%dfc
  ef1b04:	4e75           	rts
  ef1b06:	226f 0008      	moveal %sp@(8),%a1
  ef1b0a:	4e7a 1001      	movec %dfc,%d1
  ef1b0e:	4e7b 9001      	movec %a1,%dfc
  ef1b12:	206f 0004      	moveal %sp@(4),%a0
  ef1b16:	202f 000c      	movel %sp@(12),%d0
  ef1b1a:	0e90 0800      	movesl %d0,%a0@
  ef1b1e:	4e7b 1001      	movec %d1,%dfc
  ef1b22:	4e75           	rts
  ef1b24:	206f 0004      	moveal %sp@(4),%a0
  ef1b28:	2097           	movel %sp@,%a0@
  ef1b2a:	214f 0004      	movel %sp,%a0@(4)
  ef1b2e:	2178 0008 0008 	movel 0x8,%a0@(8)
  ef1b34:	2178 048c 000c 	movel 0x48c,%a0@(12)
  ef1b3a:	21c8 048c      	movel %a0,0x48c
  ef1b3e:	21fc 00ef 1b4a 	movel #15670090,0x8
  ef1b44:	0008 
  ef1b46:	7000           	moveq #0,%d0
  ef1b48:	4e75           	rts
  ef1b4a:	2078 048c      	moveal 0x48c,%a0
  ef1b4e:	2e68 0004      	moveal %a0@(4),%sp
  ef1b52:	2e90           	movel %a0@,%sp@
  ef1b54:	7001           	moveq #1,%d0
  ef1b56:	6004           	bras 0xef1b5c
  ef1b58:	206f 0004      	moveal %sp@(4),%a0
  ef1b5c:	21e8 0008 0008 	movel %a0@(8),0x8
  ef1b62:	21e8 000c 048c 	movel %a0@(12),0x48c
  ef1b68:	4e75           	rts
  ef1b6a:	0000 4e56      	orib #86,%d0
  ef1b6e:	fff8           	0177770
  ef1b70:	48d7 3000      	moveml %a4-%a5,%sp@
  ef1b74:	2a6e 0008      	moveal %fp@(8),%a5
  ef1b78:	287c 00ef 70d8 	moveal #15691992,%a4
  ef1b7e:	4a2e 000f      	tstb %fp@(15)
  ef1b82:	6602           	bnes 0xef1b86
  ef1b84:	588c           	addql #4,%a4
  ef1b86:	b9fc 00ef 70f8 	cmpal #15692024,%a4
  ef1b8c:	640e           	bccs 0xef1b9c
  ef1b8e:	7264           	moveq #100,%d1
  ef1b90:	d3b8 0000      	addl %d1,0x0
  ef1b94:	1a9c           	moveb %a4@+,%a5@
  ef1b96:	93b8 0000      	subl %d1,0x0
  ef1b9a:	60ea           	bras 0xef1b86
  ef1b9c:	4cee 3000 fff8 	moveml %fp@(-8),%a4-%a5
  ef1ba2:	4e5e           	unlk %fp
  ef1ba4:	4e75           	rts
  ef1ba6:	4e56 ffe8      	linkw %fp,#-24
  ef1baa:	48d7 20f8      	moveml %d3-%d7/%a5,%sp@
  ef1bae:	3a3c 00ff      	movew #255,%d5
  ef1bb2:	7800           	moveq #0,%d4
  ef1bb4:	7600           	moveq #0,%d3
  ef1bb6:	4eba 03ce      	jsr %pc@(0xef1f86)
  ef1bba:	1e00           	moveb %d0,%d7
  ef1bbc:	725f           	moveq #95,%d1
  ef1bbe:	c081           	andl %d1,%d0
  ef1bc0:	7241           	moveq #65,%d1
  ef1bc2:	b081           	cmpl %d1,%d0
  ef1bc4:	677a           	beqs 0xef1c40
  ef1bc6:	7242           	moveq #66,%d1
  ef1bc8:	b081           	cmpl %d1,%d0
  ef1bca:	677e           	beqs 0xef1c4a
  ef1bcc:	724b           	moveq #75,%d1
  ef1bce:	b081           	cmpl %d1,%d0
  ef1bd0:	6700 0082      	beqw 0xef1c54
  ef1bd4:	7253           	moveq #83,%d1
  ef1bd6:	b081           	cmpl %d1,%d0
  ef1bd8:	6700 0082      	beqw 0xef1c5c
  ef1bdc:	1007           	moveb %d7,%d0
  ef1bde:	725f           	moveq #95,%d1
  ef1be0:	c081           	andl %d1,%d0
  ef1be2:	6700 0088      	beqw 0xef1c6c
  ef1be6:	7245           	moveq #69,%d1
  ef1be8:	b081           	cmpl %d1,%d0
  ef1bea:	6700 018a      	beqw 0xef1d76
  ef1bee:	7249           	moveq #73,%d1
  ef1bf0:	b081           	cmpl %d1,%d0
  ef1bf2:	6700 0112      	beqw 0xef1d06
  ef1bf6:	724e           	moveq #78,%d1
  ef1bf8:	b081           	cmpl %d1,%d0
  ef1bfa:	6700 0152      	beqw 0xef1d4e
  ef1bfe:	724f           	moveq #79,%d1
  ef1c00:	b081           	cmpl %d1,%d0
  ef1c02:	6700 0126      	beqw 0xef1d2a
  ef1c06:	7252           	moveq #82,%d1
  ef1c08:	b081           	cmpl %d1,%d0
  ef1c0a:	6700 0192      	beqw 0xef1d9e
  ef1c0e:	7255           	moveq #85,%d1
  ef1c10:	b081           	cmpl %d1,%d0
  ef1c12:	6700 0174      	beqw 0xef1d88
  ef1c16:	7230           	moveq #48,%d1
  ef1c18:	be01           	cmpb %d1,%d7
  ef1c1a:	6d00 021e      	bltw 0xef1e3a
  ef1c1e:	7239           	moveq #57,%d1
  ef1c20:	be01           	cmpb %d1,%d7
  ef1c22:	6e00 0216      	bgtw 0xef1e3a
  ef1c26:	0c45 00ff      	cmpiw #255,%d5
  ef1c2a:	6608           	bnes 0xef1c34
  ef1c2c:	7000           	moveq #0,%d0
  ef1c2e:	1038 05b4      	moveb 0x5b4,%d0
  ef1c32:	3a00           	movew %d0,%d5
  ef1c34:	7201           	moveq #1,%d1
  ef1c36:	ba41           	cmpw %d1,%d5
  ef1c38:	6c00 018c      	bgew 0xef1dc6
  ef1c3c:	6000 01fc      	braw 0xef1e3a
  ef1c40:	7a01           	moveq #1,%d5
  ef1c42:	7601           	moveq #1,%d3
  ef1c44:	1803           	moveb %d3,%d4
  ef1c46:	6000 ff6e      	braw 0xef1bb6
  ef1c4a:	7a02           	moveq #2,%d5
  ef1c4c:	7601           	moveq #1,%d3
  ef1c4e:	1803           	moveb %d3,%d4
  ef1c50:	6000 ff64      	braw 0xef1bb6
  ef1c54:	7a00           	moveq #0,%d5
  ef1c56:	7801           	moveq #1,%d4
  ef1c58:	6000 ff5c      	braw 0xef1bb6
  ef1c5c:	4a38 05b8      	tstb 0x5b8
  ef1c60:	6700 01d8      	beqw 0xef1e3a
  ef1c64:	7a00           	moveq #0,%d5
  ef1c66:	7601           	moveq #1,%d3
  ef1c68:	6000 ff4c      	braw 0xef1bb6
  ef1c6c:	0c45 00ff      	cmpiw #255,%d5
  ef1c70:	6716           	beqs 0xef1c88
  ef1c72:	4a04           	tstb %d4
  ef1c74:	6704           	beqs 0xef1c7a
  ef1c76:	11c5 05b4      	moveb %d5,0x5b4
  ef1c7a:	4a03           	tstb %d3
  ef1c7c:	6700 01c4      	beqw 0xef1e42
  ef1c80:	11c5 05b5      	moveb %d5,0x5b5
  ef1c84:	6000 01bc      	braw 0xef1e42
  ef1c88:	2f38 05ac      	movel 0x5ac,%sp@-
  ef1c8c:	4878 0002      	pea 0x2
  ef1c90:	6100 01ce      	bsrw 0xef1e60
  ef1c94:	584f           	addqw #4,%sp
  ef1c96:	2f00           	movel %d0,%sp@-
  ef1c98:	4878 0001      	pea 0x1
  ef1c9c:	6100 01c2      	bsrw 0xef1e60
  ef1ca0:	584f           	addqw #4,%sp
  ef1ca2:	2f00           	movel %d0,%sp@-
  ef1ca4:	1038 05b5      	moveb 0x5b5,%d0
  ef1ca8:	0280 0000 00ff 	andil #255,%d0
  ef1cae:	2040           	moveal %d0,%a0
  ef1cb0:	d1fc 00ef 7074 	addal #15691892,%a0
  ef1cb6:	1010           	moveb %a0@,%d0
  ef1cb8:	4880           	extw %d0
  ef1cba:	48c0           	extl %d0
  ef1cbc:	2f00           	movel %d0,%sp@-
  ef1cbe:	1038 05b4      	moveb 0x5b4,%d0
  ef1cc2:	0280 0000 00ff 	andil #255,%d0
  ef1cc8:	2040           	moveal %d0,%a0
  ef1cca:	d1fc 00ef 7070 	addal #15691888,%a0
  ef1cd0:	1010           	moveb %a0@,%d0
  ef1cd2:	4880           	extw %d0
  ef1cd4:	48c0           	extl %d0
  ef1cd6:	2f00           	movel %d0,%sp@-
  ef1cd8:	4879 00ef 70f8 	pea 0xef70f8
  ef1cde:	4eba 037c      	jsr %pc@(0xef205c)
  ef1ce2:	4fef 0018      	lea %sp@(24),%sp
  ef1ce6:	4a38 05b7      	tstb 0x5b7
  ef1cea:	660a           	bnes 0xef1cf6
  ef1cec:	4878 006e      	pea 0x6e
  ef1cf0:	4eba 04a2      	jsr %pc@(0xef2194)
  ef1cf4:	584f           	addqw #4,%sp
  ef1cf6:	4879 00ef 7118 	pea 0xef7118
  ef1cfc:	4eba 035e      	jsr %pc@(0xef205c)
  ef1d00:	584f           	addqw #4,%sp
  ef1d02:	6000 013e      	braw 0xef1e42
  ef1d06:	4a04           	tstb %d4
  ef1d08:	6700 0130      	beqw 0xef1e3a
  ef1d0c:	11c5 05b4      	moveb %d5,0x5b4
  ef1d10:	4eba 02a0      	jsr %pc@(0xef1fb2)
  ef1d14:	0280 0000 00ff 	andil #255,%d0
  ef1d1a:	725f           	moveq #95,%d1
  ef1d1c:	c081           	andl %d1,%d0
  ef1d1e:	724f           	moveq #79,%d1
  ef1d20:	b081           	cmpl %d1,%d0
  ef1d22:	6600 011e      	bnew 0xef1e42
  ef1d26:	6000 fe8e      	braw 0xef1bb6
  ef1d2a:	4a03           	tstb %d3
  ef1d2c:	6700 010c      	beqw 0xef1e3a
  ef1d30:	11c5 05b5      	moveb %d5,0x5b5
  ef1d34:	4eba 027c      	jsr %pc@(0xef1fb2)
  ef1d38:	0280 0000 00ff 	andil #255,%d0
  ef1d3e:	725f           	moveq #95,%d1
  ef1d40:	c081           	andl %d1,%d0
  ef1d42:	7249           	moveq #73,%d1
  ef1d44:	b081           	cmpl %d1,%d0
  ef1d46:	6600 00fa      	bnew 0xef1e42
  ef1d4a:	6000 fe6a      	braw 0xef1bb6
  ef1d4e:	0c45 00ff      	cmpiw #255,%d5
  ef1d52:	6600 00e6      	bnew 0xef1e3a
  ef1d56:	4eba 022e      	jsr %pc@(0xef1f86)
  ef1d5a:	0280 0000 00ff 	andil #255,%d0
  ef1d60:	725f           	moveq #95,%d1
  ef1d62:	c081           	andl %d1,%d0
  ef1d64:	1e00           	moveb %d0,%d7
  ef1d66:	7245           	moveq #69,%d1
  ef1d68:	be01           	cmpb %d1,%d7
  ef1d6a:	6600 00ce      	bnew 0xef1e3a
  ef1d6e:	4238 05b7      	clrb 0x5b7
  ef1d72:	6000 00ce      	braw 0xef1e42
  ef1d76:	0c45 00ff      	cmpiw #255,%d5
  ef1d7a:	6600 00be      	bnew 0xef1e3a
  ef1d7e:	7201           	moveq #1,%d1
  ef1d80:	11c1 05b7      	moveb %d1,0x5b7
  ef1d84:	6000 00bc      	braw 0xef1e42
  ef1d88:	4eba 023e      	jsr %pc@(0xef1fc8)
  ef1d8c:	2c00           	movel %d0,%d6
  ef1d8e:	6700 00b2      	beqw 0xef1e42
  ef1d92:	21c6 05ac      	movel %d6,0x5ac
  ef1d96:	21c6 05b0      	movel %d6,0x5b0
  ef1d9a:	6000 00a6      	braw 0xef1e42
  ef1d9e:	0c45 00ff      	cmpiw #255,%d5
  ef1da2:	6608           	bnes 0xef1dac
  ef1da4:	7000           	moveq #0,%d0
  ef1da6:	1038 05b4      	moveb 0x5b4,%d0
  ef1daa:	3a00           	movew %d0,%d5
  ef1dac:	42a7           	clrl %sp@-
  ef1dae:	3005           	movew %d5,%d0
  ef1db0:	48c0           	extl %d0
  ef1db2:	7202           	moveq #2,%d1
  ef1db4:	9280           	subl %d0,%d1
  ef1db6:	e581           	asll #2,%d1
  ef1db8:	d2b8 05ac      	addl 0x5ac,%d1
  ef1dbc:	2f01           	movel %d1,%sp@-
  ef1dbe:	6100 fdac      	bsrw 0xef1b6c
  ef1dc2:	504f           	addqw #8,%sp
  ef1dc4:	607c           	bras 0xef1e42
  ef1dc6:	53b8 0522      	subql #1,0x522
  ef1dca:	4eba 01fc      	jsr %pc@(0xef1fc8)
  ef1dce:	2c00           	movel %d0,%d6
  ef1dd0:	2a7c 00ef 7078 	moveal #15691896,%a5
  ef1dd6:	2015           	movel %a5@,%d0
  ef1dd8:	b086           	cmpl %d6,%d0
  ef1dda:	6708           	beqs 0xef1de4
  ef1ddc:	4a95           	tstl %a5@
  ef1dde:	675a           	beqs 0xef1e3a
  ef1de0:	508d           	addql #8,%a5
  ef1de2:	60f2           	bras 0xef1dd6
  ef1de4:	3005           	movew %d5,%d0
  ef1de6:	48c0           	extl %d0
  ef1de8:	7202           	moveq #2,%d1
  ef1dea:	9280           	subl %d0,%d1
  ef1dec:	e581           	asll #2,%d1
  ef1dee:	2041           	moveal %d1,%a0
  ef1df0:	d1f8 05ac      	addal 0x5ac,%a0
  ef1df4:	720c           	moveq #12,%d1
  ef1df6:	1081           	moveb %d1,%a0@
  ef1df8:	3005           	movew %d5,%d0
  ef1dfa:	48c0           	extl %d0
  ef1dfc:	7202           	moveq #2,%d1
  ef1dfe:	9280           	subl %d0,%d1
  ef1e00:	e581           	asll #2,%d1
  ef1e02:	2041           	moveal %d1,%a0
  ef1e04:	d1f8 05ac      	addal 0x5ac,%a0
  ef1e08:	10ad 0007      	moveb %a5@(7),%a0@
  ef1e0c:	3005           	movew %d5,%d0
  ef1e0e:	48c0           	extl %d0
  ef1e10:	7202           	moveq #2,%d1
  ef1e12:	9280           	subl %d0,%d1
  ef1e14:	e581           	asll #2,%d1
  ef1e16:	2041           	moveal %d1,%a0
  ef1e18:	d1f8 05ac      	addal 0x5ac,%a0
  ef1e1c:	720d           	moveq #13,%d1
  ef1e1e:	1081           	moveb %d1,%a0@
  ef1e20:	3005           	movew %d5,%d0
  ef1e22:	48c0           	extl %d0
  ef1e24:	7202           	moveq #2,%d1
  ef1e26:	9280           	subl %d0,%d1
  ef1e28:	e581           	asll #2,%d1
  ef1e2a:	2041           	moveal %d1,%a0
  ef1e2c:	d1f8 05ac      	addal 0x5ac,%a0
  ef1e30:	202d 0004      	movel %a5@(4),%d0
  ef1e34:	e080           	asrl #8,%d0
  ef1e36:	1080           	moveb %d0,%a0@
  ef1e38:	6008           	bras 0xef1e42
  ef1e3a:	4879 00ef 711b 	pea 0xef711b
  ef1e40:	600e           	bras 0xef1e50
  ef1e42:	4eba 0142      	jsr %pc@(0xef1f86)
  ef1e46:	4a00           	tstb %d0
  ef1e48:	670c           	beqs 0xef1e56
  ef1e4a:	4879 00ef 712e 	pea 0xef712e
  ef1e50:	4eba 020a      	jsr %pc@(0xef205c)
  ef1e54:	584f           	addqw #4,%sp
  ef1e56:	4cee 20f8 ffe8 	moveml %fp@(-24),%d3-%d7/%a5
  ef1e5c:	4e5e           	unlk %fp
  ef1e5e:	4e75           	rts
  ef1e60:	4e56 fff8      	linkw %fp,#-8
  ef1e64:	48d7 2080      	moveml %d7/%a5,%sp@
  ef1e68:	7002           	moveq #2,%d0
  ef1e6a:	90ae 0008      	subl %fp@(8),%d0
  ef1e6e:	e580           	asll #2,%d0
  ef1e70:	2040           	moveal %d0,%a0
  ef1e72:	d1f8 05ac      	addal 0x5ac,%a0
  ef1e76:	7e0c           	moveq #12,%d7
  ef1e78:	1087           	moveb %d7,%a0@
  ef1e7a:	7002           	moveq #2,%d0
  ef1e7c:	90ae 0008      	subl %fp@(8),%d0
  ef1e80:	e580           	asll #2,%d0
  ef1e82:	2040           	moveal %d0,%a0
  ef1e84:	d1f8 05ac      	addal 0x5ac,%a0
  ef1e88:	1010           	moveb %a0@,%d0
  ef1e8a:	0280 0000 00ff 	andil #255,%d0
  ef1e90:	2e00           	movel %d0,%d7
  ef1e92:	7002           	moveq #2,%d0
  ef1e94:	90ae 0008      	subl %fp@(8),%d0
  ef1e98:	e580           	asll #2,%d0
  ef1e9a:	2040           	moveal %d0,%a0
  ef1e9c:	d1f8 05ac      	addal 0x5ac,%a0
  ef1ea0:	720d           	moveq #13,%d1
  ef1ea2:	1081           	moveb %d1,%a0@
  ef1ea4:	7002           	moveq #2,%d0
  ef1ea6:	90ae 0008      	subl %fp@(8),%d0
  ef1eaa:	e580           	asll #2,%d0
  ef1eac:	2040           	moveal %d0,%a0
  ef1eae:	d1f8 05ac      	addal 0x5ac,%a0
  ef1eb2:	1010           	moveb %a0@,%d0
  ef1eb4:	0280 0000 00ff 	andil #255,%d0
  ef1eba:	e188           	lsll #8,%d0
  ef1ebc:	de80           	addl %d0,%d7
  ef1ebe:	2a7c 00ef 7078 	moveal #15691896,%a5
  ef1ec4:	202d 0004      	movel %a5@(4),%d0
  ef1ec8:	b087           	cmpl %d7,%d0
  ef1eca:	6604           	bnes 0xef1ed0
  ef1ecc:	2015           	movel %a5@,%d0
  ef1ece:	600c           	bras 0xef1edc
  ef1ed0:	4a95           	tstl %a5@
  ef1ed2:	6604           	bnes 0xef1ed8
  ef1ed4:	2007           	movel %d7,%d0
  ef1ed6:	6004           	bras 0xef1edc
  ef1ed8:	508d           	addql #8,%a5
  ef1eda:	60e8           	bras 0xef1ec4
  ef1edc:	4cee 2080 fff8 	moveml %fp@(-8),%d7/%a5
  ef1ee2:	4e5e           	unlk %fp
  ef1ee4:	4e75           	rts
  ef1ee6:	0000 4e56      	orib #86,%d0
  ef1eea:	fff4           	0177764
  ef1eec:	48d7 20c0      	moveml %d6-%d7/%a5,%sp@
  ef1ef0:	2a7c 0000 04d0 	moveal #1232,%a5
  ef1ef6:	7e00           	moveq #0,%d7
  ef1ef8:	21cd 0522      	movel %a5,0x522
  ef1efc:	42b8 05d8      	clrl 0x5d8
  ef1f00:	4eba 035c      	jsr %pc@(0xef225e)
  ef1f04:	2c00           	movel %d0,%d6
  ef1f06:	6ff8           	bles 0xef1f00
  ef1f08:	1006           	moveb %d6,%d0
  ef1f0a:	1a80           	moveb %d0,%a5@
  ef1f0c:	0c15 0008      	cmpib #8,%a5@
  ef1f10:	6706           	beqs 0xef1f18
  ef1f12:	0c15 007f      	cmpib #127,%a5@
  ef1f16:	6604           	bnes 0xef1f1c
  ef1f18:	7c01           	moveq #1,%d6
  ef1f1a:	602a           	bras 0xef1f46
  ef1f1c:	0c15 0015      	cmpib #21,%a5@
  ef1f20:	6604           	bnes 0xef1f26
  ef1f22:	2c07           	movel %d7,%d6
  ef1f24:	6020           	bras 0xef1f46
  ef1f26:	4aae 0008      	tstl %fp@(8)
  ef1f2a:	6708           	beqs 0xef1f34
  ef1f2c:	2f06           	movel %d6,%sp@-
  ef1f2e:	4eba 0264      	jsr %pc@(0xef2194)
  ef1f32:	584f           	addqw #4,%sp
  ef1f34:	0c15 000d      	cmpib #13,%a5@
  ef1f38:	672a           	beqs 0xef1f64
  ef1f3a:	7c50           	moveq #80,%d6
  ef1f3c:	be86           	cmpl %d6,%d7
  ef1f3e:	6c04           	bges 0xef1f44
  ef1f40:	528d           	addql #1,%a5
  ef1f42:	5287           	addql #1,%d7
  ef1f44:	7c00           	moveq #0,%d6
  ef1f46:	4a87           	tstl %d7
  ef1f48:	67b6           	beqs 0xef1f00
  ef1f4a:	2006           	movel %d6,%d0
  ef1f4c:	5386           	subql #1,%d6
  ef1f4e:	4a80           	tstl %d0
  ef1f50:	67ae           	beqs 0xef1f00
  ef1f52:	538d           	subql #1,%a5
  ef1f54:	5387           	subql #1,%d7
  ef1f56:	4879 00ef 7148 	pea 0xef7148
  ef1f5c:	4eba 00fe      	jsr %pc@(0xef205c)
  ef1f60:	584f           	addqw #4,%sp
  ef1f62:	60e2           	bras 0xef1f46
  ef1f64:	4aae 0008      	tstl %fp@(8)
  ef1f68:	670a           	beqs 0xef1f74
  ef1f6a:	4878 000a      	pea 0xa
  ef1f6e:	4eba 0224      	jsr %pc@(0xef2194)
  ef1f72:	584f           	addqw #4,%sp
  ef1f74:	528d           	addql #1,%a5
  ef1f76:	4215           	clrb %a5@
  ef1f78:	21c7 0526      	movel %d7,0x526
  ef1f7c:	4cee 20c0 fff4 	moveml %fp@(-12),%d6-%d7/%a5
  ef1f82:	4e5e           	unlk %fp
  ef1f84:	4e75           	rts
  ef1f86:	4e56 0000      	linkw %fp,#0
  ef1f8a:	2078 0522      	moveal 0x522,%a0
  ef1f8e:	0c10 000d      	cmpib #13,%a0@
  ef1f92:	6604           	bnes 0xef1f98
  ef1f94:	7000           	moveq #0,%d0
  ef1f96:	6010           	bras 0xef1fa8
  ef1f98:	2078 0522      	moveal 0x522,%a0
  ef1f9c:	52b8 0522      	addql #1,0x522
  ef1fa0:	1010           	moveb %a0@,%d0
  ef1fa2:	0280 0000 00ff 	andil #255,%d0
  ef1fa8:	0280 0000 00ff 	andil #255,%d0
  ef1fae:	4e5e           	unlk %fp
  ef1fb0:	4e75           	rts
  ef1fb2:	4e56 0000      	linkw %fp,#0
  ef1fb6:	2078 0522      	moveal 0x522,%a0
  ef1fba:	1010           	moveb %a0@,%d0
  ef1fbc:	0280 0000 00ff 	andil #255,%d0
  ef1fc2:	4e5e           	unlk %fp
  ef1fc4:	4e75           	rts
  ef1fc6:	0000 4e56      	orib #86,%d0
  ef1fca:	fff8           	0177770
  ef1fcc:	48d7 00c0      	moveml %d6-%d7,%sp@
  ef1fd0:	7e00           	moveq #0,%d7
  ef1fd2:	4eba ffde      	jsr %pc@(0xef1fb2)
  ef1fd6:	0280 0000 00ff 	andil #255,%d0
  ef1fdc:	2f00           	movel %d0,%sp@-
  ef1fde:	4eba 0024      	jsr %pc@(0xef2004)
  ef1fe2:	584f           	addqw #4,%sp
  ef1fe4:	2c00           	movel %d0,%d6
  ef1fe6:	6d0e           	blts 0xef1ff6
  ef1fe8:	2007           	movel %d7,%d0
  ef1fea:	e980           	asll #4,%d0
  ef1fec:	8086           	orl %d6,%d0
  ef1fee:	2e00           	movel %d0,%d7
  ef1ff0:	4eba ff94      	jsr %pc@(0xef1f86)
  ef1ff4:	60dc           	bras 0xef1fd2
  ef1ff6:	2007           	movel %d7,%d0
  ef1ff8:	4cee 00c0 fff8 	moveml %fp@(-8),%d6-%d7
  ef1ffe:	4e5e           	unlk %fp
  ef2000:	4e75           	rts
  ef2002:	0000 4e56      	orib #86,%d0
  ef2006:	fffc           	0177774
  ef2008:	2e87           	movel %d7,%sp@
  ef200a:	1e2e 000b      	moveb %fp@(11),%d7
  ef200e:	7230           	moveq #48,%d1
  ef2010:	be01           	cmpb %d1,%d7
  ef2012:	6510           	bcss 0xef2024
  ef2014:	7239           	moveq #57,%d1
  ef2016:	be01           	cmpb %d1,%d7
  ef2018:	620a           	bhis 0xef2024
  ef201a:	7000           	moveq #0,%d0
  ef201c:	1007           	moveb %d7,%d0
  ef201e:	7e30           	moveq #48,%d7
  ef2020:	9087           	subl %d7,%d0
  ef2022:	602e           	bras 0xef2052
  ef2024:	7261           	moveq #97,%d1
  ef2026:	be01           	cmpb %d1,%d7
  ef2028:	6510           	bcss 0xef203a
  ef202a:	7266           	moveq #102,%d1
  ef202c:	be01           	cmpb %d1,%d7
  ef202e:	620a           	bhis 0xef203a
  ef2030:	7000           	moveq #0,%d0
  ef2032:	1007           	moveb %d7,%d0
  ef2034:	7e57           	moveq #87,%d7
  ef2036:	9087           	subl %d7,%d0
  ef2038:	6018           	bras 0xef2052
  ef203a:	7241           	moveq #65,%d1
  ef203c:	be01           	cmpb %d1,%d7
  ef203e:	6510           	bcss 0xef2050
  ef2040:	7246           	moveq #70,%d1
  ef2042:	be01           	cmpb %d1,%d7
  ef2044:	620a           	bhis 0xef2050
  ef2046:	7000           	moveq #0,%d0
  ef2048:	1007           	moveb %d7,%d0
  ef204a:	7e37           	moveq #55,%d7
  ef204c:	9087           	subl %d7,%d0
  ef204e:	6002           	bras 0xef2052
  ef2050:	70ff           	moveq #-1,%d0
  ef2052:	2e2e fffc      	movel %fp@(-4),%d7
  ef2056:	4e5e           	unlk %fp
  ef2058:	4e75           	rts
  ef205a:	0000 4e56      	orib #86,%d0
  ef205e:	fff0           	0177760
  ef2060:	48d7 3880      	moveml %d7/%a3-%a5,%sp@
  ef2064:	2a6e 0008      	moveal %fp@(8),%a5
  ef2068:	49ee 000c      	lea %fp@(12),%a4
  ef206c:	7000           	moveq #0,%d0
  ef206e:	101d           	moveb %a5@+,%d0
  ef2070:	2e00           	movel %d0,%d7
  ef2072:	676c           	beqs 0xef20e0
  ef2074:	7225           	moveq #37,%d1
  ef2076:	be81           	cmpl %d1,%d7
  ef2078:	670a           	beqs 0xef2084
  ef207a:	2f07           	movel %d7,%sp@-
  ef207c:	4eba 0116      	jsr %pc@(0xef2194)
  ef2080:	584f           	addqw #4,%sp
  ef2082:	60e8           	bras 0xef206c
  ef2084:	7000           	moveq #0,%d0
  ef2086:	101d           	moveb %a5@+,%d0
  ef2088:	7e63           	moveq #99,%d7
  ef208a:	b087           	cmpl %d7,%d0
  ef208c:	6716           	beqs 0xef20a4
  ef208e:	7e64           	moveq #100,%d7
  ef2090:	b087           	cmpl %d7,%d0
  ef2092:	6734           	beqs 0xef20c8
  ef2094:	7e73           	moveq #115,%d7
  ef2096:	b087           	cmpl %d7,%d0
  ef2098:	671a           	beqs 0xef20b4
  ef209a:	7e78           	moveq #120,%d7
  ef209c:	b087           	cmpl %d7,%d0
  ef209e:	6734           	beqs 0xef20d4
  ef20a0:	588c           	addql #4,%a4
  ef20a2:	60c8           	bras 0xef206c
  ef20a4:	7000           	moveq #0,%d0
  ef20a6:	102c 0003      	moveb %a4@(3),%d0
  ef20aa:	2f00           	movel %d0,%sp@-
  ef20ac:	4eba 00e6      	jsr %pc@(0xef2194)
  ef20b0:	584f           	addqw #4,%sp
  ef20b2:	60ec           	bras 0xef20a0
  ef20b4:	2654           	moveal %a4@,%a3
  ef20b6:	7000           	moveq #0,%d0
  ef20b8:	101b           	moveb %a3@+,%d0
  ef20ba:	2e00           	movel %d0,%d7
  ef20bc:	67e2           	beqs 0xef20a0
  ef20be:	2f07           	movel %d7,%sp@-
  ef20c0:	4eba 00d2      	jsr %pc@(0xef2194)
  ef20c4:	584f           	addqw #4,%sp
  ef20c6:	60ee           	bras 0xef20b6
  ef20c8:	4878 000a      	pea 0xa
  ef20cc:	2f14           	movel %a4@,%sp@-
  ef20ce:	611a           	bsrs 0xef20ea
  ef20d0:	504f           	addqw #8,%sp
  ef20d2:	60cc           	bras 0xef20a0
  ef20d4:	4878 0010      	pea 0x10
  ef20d8:	2f14           	movel %a4@,%sp@-
  ef20da:	610e           	bsrs 0xef20ea
  ef20dc:	504f           	addqw #8,%sp
  ef20de:	60c0           	bras 0xef20a0
  ef20e0:	4cee 3880 fff0 	moveml %fp@(-16),%d7/%a3-%a5
  ef20e6:	4e5e           	unlk %fp
  ef20e8:	4e75           	rts
  ef20ea:	4e56 fffc      	linkw %fp,#-4
  ef20ee:	202e 0008      	movel %fp@(8),%d0
  ef20f2:	222e 000c      	movel %fp@(12),%d1
  ef20f6:	4eba 01ee      	jsr %pc@(0xef22e6)
  ef20fa:	2d40 fffc      	movel %d0,%fp@(-4)
  ef20fe:	672a           	beqs 0xef212a
  ef2100:	2f2e 000c      	movel %fp@(12),%sp@-
  ef2104:	2f00           	movel %d0,%sp@-
  ef2106:	61e2           	bsrs 0xef20ea
  ef2108:	504f           	addqw #8,%sp
  ef210a:	0c2e 0010 000f 	cmpib #16,%fp@(15)
  ef2110:	6608           	bnes 0xef211a
  ef2112:	202e fffc      	movel %fp@(-4),%d0
  ef2116:	e988           	lsll #4,%d0
  ef2118:	600c           	bras 0xef2126
  ef211a:	202e fffc      	movel %fp@(-4),%d0
  ef211e:	d080           	addl %d0,%d0
  ef2120:	2200           	movel %d0,%d1
  ef2122:	e589           	lsll #2,%d1
  ef2124:	d081           	addl %d1,%d0
  ef2126:	91ae 0008      	subl %d0,%fp@(8)
  ef212a:	206e 0008      	moveal %fp@(8),%a0
  ef212e:	d1fc 00ef 714c 	addal #15692108,%a0
  ef2134:	1010           	moveb %a0@,%d0
  ef2136:	0280 0000 00ff 	andil #255,%d0
  ef213c:	2f00           	movel %d0,%sp@-
  ef213e:	4eba 0054      	jsr %pc@(0xef2194)
  ef2142:	584f           	addqw #4,%sp
  ef2144:	4e5e           	unlk %fp
  ef2146:	4e75           	rts
  ef2148:	4e56 fff8      	linkw %fp,#-8
  ef214c:	48d7 00c0      	moveml %d6-%d7,%sp@
  ef2150:	2e2e 0008      	movel %fp@(8),%d7
  ef2154:	202e 000c      	movel %fp@(12),%d0
  ef2158:	5380           	subql #1,%d0
  ef215a:	7c07           	moveq #7,%d6
  ef215c:	c086           	andl %d6,%d0
  ef215e:	e580           	asll #2,%d0
  ef2160:	2c00           	movel %d0,%d6
  ef2162:	4a86           	tstl %d6
  ef2164:	6d22           	blts 0xef2188
  ef2166:	2007           	movel %d7,%d0
  ef2168:	eca0           	asrl %d6,%d0
  ef216a:	720f           	moveq #15,%d1
  ef216c:	c081           	andl %d1,%d0
  ef216e:	2040           	moveal %d0,%a0
  ef2170:	d1fc 00ef 7160 	addal #15692128,%a0
  ef2176:	1010           	moveb %a0@,%d0
  ef2178:	4880           	extw %d0
  ef217a:	48c0           	extl %d0
  ef217c:	2f00           	movel %d0,%sp@-
  ef217e:	4eba 0014      	jsr %pc@(0xef2194)
  ef2182:	584f           	addqw #4,%sp
  ef2184:	5986           	subql #4,%d6
  ef2186:	60da           	bras 0xef2162
  ef2188:	4cee 00c0 fff8 	moveml %fp@(-8),%d6-%d7
  ef218e:	4e5e           	unlk %fp
  ef2190:	4e75           	rts
  ef2192:	0000 4e56      	orib #86,%d0
  ef2196:	fffc           	0177774
  ef2198:	2e87           	movel %d7,%sp@
  ef219a:	1e2e 000b      	moveb %fp@(11),%d7
  ef219e:	720a           	moveq #10,%d1
  ef21a0:	be01           	cmpb %d1,%d7
  ef21a2:	6608           	bnes 0xef21ac
  ef21a4:	4878 000d      	pea 0xd
  ef21a8:	61ea           	bsrs 0xef2194
  ef21aa:	584f           	addqw #4,%sp
  ef21ac:	7000           	moveq #0,%d0
  ef21ae:	1007           	moveb %d7,%d0
  ef21b0:	2f00           	movel %d0,%sp@-
  ef21b2:	610e           	bsrs 0xef21c2
  ef21b4:	584f           	addqw #4,%sp
  ef21b6:	4a80           	tstl %d0
  ef21b8:	66f2           	bnes 0xef21ac
  ef21ba:	2e2e fffc      	movel %fp@(-4),%d7
  ef21be:	4e5e           	unlk %fp
  ef21c0:	4e75           	rts
  ef21c2:	4e56 fffc      	linkw %fp,#-4
  ef21c6:	2e87           	movel %d7,%sp@
  ef21c8:	4a38 05b5      	tstb 0x5b5
  ef21cc:	6612           	bnes 0xef21e0
  ef21ce:	7000           	moveq #0,%d0
  ef21d0:	102e 000b      	moveb %fp@(11),%d0
  ef21d4:	2f00           	movel %d0,%sp@-
  ef21d6:	4eba 1060      	jsr %pc@(0xef3238)
  ef21da:	584f           	addqw #4,%sp
  ef21dc:	7000           	moveq #0,%d0
  ef21de:	6044           	bras 0xef2224
  ef21e0:	7000           	moveq #0,%d0
  ef21e2:	1038 05b5      	moveb 0x5b5,%d0
  ef21e6:	7202           	moveq #2,%d1
  ef21e8:	9280           	subl %d0,%d1
  ef21ea:	e581           	asll #2,%d1
  ef21ec:	2041           	moveal %d1,%a0
  ef21ee:	d1f8 05b0      	addal 0x5b0,%a0
  ef21f2:	1010           	moveb %a0@,%d0
  ef21f4:	0280 0000 00ff 	andil #255,%d0
  ef21fa:	0800 0002      	btst #2,%d0
  ef21fe:	6722           	beqs 0xef2222
  ef2200:	7e05           	moveq #5,%d7
  ef2202:	5387           	subql #1,%d7
  ef2204:	6efc           	bgts 0xef2202
  ef2206:	7000           	moveq #0,%d0
  ef2208:	1038 05b5      	moveb 0x5b5,%d0
  ef220c:	7202           	moveq #2,%d1
  ef220e:	9280           	subl %d0,%d1
  ef2210:	e581           	asll #2,%d1
  ef2212:	2041           	moveal %d1,%a0
  ef2214:	d1f8 05b0      	addal 0x5b0,%a0
  ef2218:	116e 000b 0002 	moveb %fp@(11),%a0@(2)
  ef221e:	7000           	moveq #0,%d0
  ef2220:	6002           	bras 0xef2224
  ef2222:	70ff           	moveq #-1,%d0
  ef2224:	2e2e fffc      	movel %fp@(-4),%d7
  ef2228:	4e5e           	unlk %fp
  ef222a:	4e75           	rts
  ef222c:	4e56 fffc      	linkw %fp,#-4
  ef2230:	2e87           	movel %d7,%sp@
  ef2232:	612a           	bsrs 0xef225e
  ef2234:	2e00           	movel %d0,%d7
  ef2236:	6dfa           	blts 0xef2232
  ef2238:	4a38 05b7      	tstb 0x5b7
  ef223c:	6710           	beqs 0xef224e
  ef223e:	1007           	moveb %d7,%d0
  ef2240:	0280 0000 00ff 	andil #255,%d0
  ef2246:	2f00           	movel %d0,%sp@-
  ef2248:	6100 ff4a      	bsrw 0xef2194
  ef224c:	584f           	addqw #4,%sp
  ef224e:	1007           	moveb %d7,%d0
  ef2250:	0280 0000 00ff 	andil #255,%d0
  ef2256:	2e2e fffc      	movel %fp@(-4),%d7
  ef225a:	4e5e           	unlk %fp
  ef225c:	4e75           	rts
  ef225e:	4e56 fffc      	linkw %fp,#-4
  ef2262:	2e87           	movel %d7,%sp@
  ef2264:	4a38 05b4      	tstb 0x5b4
  ef2268:	6606           	bnes 0xef2270
  ef226a:	4eba 0290      	jsr %pc@(0xef24fc)
  ef226e:	604a           	bras 0xef22ba
  ef2270:	7000           	moveq #0,%d0
  ef2272:	1038 05b4      	moveb 0x5b4,%d0
  ef2276:	7202           	moveq #2,%d1
  ef2278:	9280           	subl %d0,%d1
  ef227a:	e581           	asll #2,%d1
  ef227c:	2041           	moveal %d1,%a0
  ef227e:	d1f8 05ac      	addal 0x5ac,%a0
  ef2282:	1010           	moveb %a0@,%d0
  ef2284:	0280 0000 00ff 	andil #255,%d0
  ef228a:	0800 0000      	btst #0,%d0
  ef228e:	6604           	bnes 0xef2294
  ef2290:	70ff           	moveq #-1,%d0
  ef2292:	6026           	bras 0xef22ba
  ef2294:	7e05           	moveq #5,%d7
  ef2296:	5387           	subql #1,%d7
  ef2298:	6efc           	bgts 0xef2296
  ef229a:	7000           	moveq #0,%d0
  ef229c:	1038 05b4      	moveb 0x5b4,%d0
  ef22a0:	7202           	moveq #2,%d1
  ef22a2:	9280           	subl %d0,%d1
  ef22a4:	e581           	asll #2,%d1
  ef22a6:	2041           	moveal %d1,%a0
  ef22a8:	d1f8 05ac      	addal 0x5ac,%a0
  ef22ac:	1028 0002      	moveb %a0@(2),%d0
  ef22b0:	0280 0000 00ff 	andil #255,%d0
  ef22b6:	7e7f           	moveq #127,%d7
  ef22b8:	c087           	andl %d7,%d0
  ef22ba:	2e2e fffc      	movel %fp@(-4),%d7
  ef22be:	4e5e           	unlk %fp
  ef22c0:	4e75           	rts
  ef22c2:	0000 4480      	orib #-128,%d0
  ef22c6:	4a81           	tstl %d1
  ef22c8:	6c04           	bges 0xef22ce
  ef22ca:	4481           	negl %d1
  ef22cc:	6028           	bras 0xef22f6
  ef22ce:	6126           	bsrs 0xef22f6
  ef22d0:	4480           	negl %d0
  ef22d2:	4e75           	rts
  ef22d4:	4481           	negl %d1
  ef22d6:	611e           	bsrs 0xef22f6
  ef22d8:	4480           	negl %d0
  ef22da:	4e75           	rts
  ef22dc:	4e56 0000      	linkw %fp,#0
  ef22e0:	80c1           	divuw %d1,%d0
  ef22e2:	4e5e           	unlk %fp
  ef22e4:	4e75           	rts
  ef22e6:	4a81           	tstl %d1
  ef22e8:	67f2           	beqs 0xef22dc
  ef22ea:	600a           	bras 0xef22f6
  ef22ec:	4a80           	tstl %d0
  ef22ee:	6dd4           	blts 0xef22c4
  ef22f0:	4a81           	tstl %d1
  ef22f2:	6de0           	blts 0xef22d4
  ef22f4:	67e6           	beqs 0xef22dc
  ef22f6:	4a2f ffd8      	tstb %sp@(-40)
  ef22fa:	48e7 3c80      	moveml %d2-%d5/%a0,%sp@-
  ef22fe:	2601           	movel %d1,%d3
  ef2300:	4243           	clrw %d3
  ef2302:	4843           	swap %d3
  ef2304:	6634           	bnes 0xef233a
  ef2306:	2400           	movel %d0,%d2
  ef2308:	4242           	clrw %d2
  ef230a:	4842           	swap %d2
  ef230c:	b481           	cmpl %d1,%d2
  ef230e:	6c0e           	bges 0xef231e
  ef2310:	80c1           	divuw %d1,%d0
  ef2312:	0280 0000 ffff 	andil #65535,%d0
  ef2318:	4cdf 013c      	moveml %sp@+,%d2-%d5/%a0
  ef231c:	4e75           	rts
  ef231e:	84c1           	divuw %d1,%d2
  ef2320:	2602           	movel %d2,%d3
  ef2322:	3600           	movew %d0,%d3
  ef2324:	86c1           	divuw %d1,%d3
  ef2326:	2003           	movel %d3,%d0
  ef2328:	0280 0000 ffff 	andil #65535,%d0
  ef232e:	4842           	swap %d2
  ef2330:	4242           	clrw %d2
  ef2332:	d082           	addl %d2,%d0
  ef2334:	4cdf 013c      	moveml %sp@+,%d2-%d5/%a0
  ef2338:	4e75           	rts
  ef233a:	7800           	moveq #0,%d4
  ef233c:	2400           	movel %d0,%d2
  ef233e:	e68a           	lsrl #3,%d2
  ef2340:	b481           	cmpl %d1,%d2
  ef2342:	6212           	bhis 0xef2356
  ef2344:	5284           	addql #1,%d4
  ef2346:	9081           	subl %d1,%d0
  ef2348:	62fa           	bhis 0xef2344
  ef234a:	6702           	beqs 0xef234e
  ef234c:	5384           	subql #1,%d4
  ef234e:	2004           	movel %d4,%d0
  ef2350:	4cdf 013c      	moveml %sp@+,%d2-%d5/%a0
  ef2354:	4e75           	rts
  ef2356:	2400           	movel %d0,%d2
  ef2358:	2601           	movel %d1,%d3
  ef235a:	5383           	subql #1,%d3
  ef235c:	5284           	addql #1,%d4
  ef235e:	e28b           	lsrl #1,%d3
  ef2360:	0c83 0000 ffff 	cmpil #65535,%d3
  ef2366:	62f4           	bhis 0xef235c
  ef2368:	5283           	addql #1,%d3
  ef236a:	0c83 0000 ffff 	cmpil #65535,%d3
  ef2370:	6304           	blss 0xef2376
  ef2372:	e28b           	lsrl #1,%d3
  ef2374:	5284           	addql #1,%d4
  ef2376:	e8aa           	lsrl %d4,%d2
  ef2378:	84c3           	divuw %d3,%d2
  ef237a:	2601           	movel %d1,%d3
  ef237c:	2a01           	movel %d1,%d5
  ef237e:	4843           	swap %d3
  ef2380:	cac2           	muluw %d2,%d5
  ef2382:	c6c2           	muluw %d2,%d3
  ef2384:	4843           	swap %d3
  ef2386:	4243           	clrw %d3
  ef2388:	da83           	addl %d3,%d5
  ef238a:	9085           	subl %d5,%d0
  ef238c:	b280           	cmpl %d0,%d1
  ef238e:	6e02           	bgts 0xef2392
  ef2390:	5282           	addql #1,%d2
  ef2392:	2002           	movel %d2,%d0
  ef2394:	0280 0000 ffff 	andil #65535,%d0
  ef239a:	4cdf 013c      	moveml %sp@+,%d2-%d5/%a0
  ef239e:	4e75           	rts
  ef23a0:	4e56 fffc      	linkw %fp,#-4
  ef23a4:	2e87           	movel %d7,%sp@
  ef23a6:	1e2e 000b      	moveb %fp@(11),%d7
  ef23aa:	7000           	moveq #0,%d0
  ef23ac:	1038 0530      	moveb 0x530,%d0
  ef23b0:	0c80 0000 0006 	cmpil #6,%d0
  ef23b6:	6200 00ee      	bhiw 0xef24a6
  ef23ba:	d040           	addw %d0,%d0
  ef23bc:	303b 0006      	movew %pc@(0xef23c4,%d0:w),%d0
  ef23c0:	4efb 0002      	jmp %pc@(0xef23c4,%d0:w)
  ef23c4:	0088 0014 0040 	oril #1310784,%d0
  ef23ca:	00e2           	0342
  ef23cc:	00e2           	0342
  ef23ce:	009e 00be 7201 	oril #12481025,%fp@+
  ef23d4:	11c1 0530      	moveb %d1,0x530
  ef23d8:	7201           	moveq #1,%d1
  ef23da:	be01           	cmpb %d1,%d7
  ef23dc:	6606           	bnes 0xef23e4
  ef23de:	7e02           	moveq #2,%d7
  ef23e0:	6000 00c0      	braw 0xef24a2
  ef23e4:	2038 0536      	movel 0x536,%d0
  ef23e8:	b0b8 053a      	cmpl 0x53a,%d0
  ef23ec:	6508           	bcss 0xef23f6
  ef23ee:	21fc 0000 053f 	movel #1343,0x536
  ef23f4:	0536 
  ef23f6:	2078 0536      	moveal 0x536,%a0
  ef23fa:	1087           	moveb %d7,%a0@
  ef23fc:	52b8 0536      	addql #1,0x536
  ef2400:	6000 00a4      	braw 0xef24a6
  ef2404:	724d           	moveq #77,%d1
  ef2406:	be01           	cmpb %d1,%d7
  ef2408:	6622           	bnes 0xef242c
  ef240a:	7e01           	moveq #1,%d7
  ef240c:	11c7 0530      	moveb %d7,0x530
  ef2410:	21f8 0532 0536 	movel 0x532,0x536
  ef2416:	4eba 00be      	jsr %pc@(0xef24d6)
  ef241a:	4238 05b4      	clrb 0x5b4
  ef241e:	4a38 05b8      	tstb 0x5b8
  ef2422:	6704           	beqs 0xef2428
  ef2424:	4238 05b5      	clrb 0x5b5
  ef2428:	7001           	moveq #1,%d0
  ef242a:	607c           	bras 0xef24a8
  ef242c:	2038 0536      	movel 0x536,%d0
  ef2430:	b0b8 053a      	cmpl 0x53a,%d0
  ef2434:	6508           	bcss 0xef243e
  ef2436:	21fc 0000 053f 	movel #1343,0x536
  ef243c:	0536 
  ef243e:	2078 0536      	moveal 0x536,%a0
  ef2442:	7201           	moveq #1,%d1
  ef2444:	1081           	moveb %d1,%a0@
  ef2446:	52b8 0536      	addql #1,0x536
  ef244a:	6086           	bras 0xef23d2
  ef244c:	0c07 00ff      	cmpib #-1,%d7
  ef2450:	6606           	bnes 0xef2458
  ef2452:	7205           	moveq #5,%d1
  ef2454:	11c1 0530      	moveb %d1,0x530
  ef2458:	727e           	moveq #126,%d1
  ef245a:	be01           	cmpb %d1,%d7
  ef245c:	6648           	bnes 0xef24a6
  ef245e:	7e06           	moveq #6,%d7
  ef2460:	6040           	bras 0xef24a2
  ef2462:	11c7 0531      	moveb %d7,0x531
  ef2466:	2038 0536      	movel 0x536,%d0
  ef246a:	b0b8 053a      	cmpl 0x53a,%d0
  ef246e:	6508           	bcss 0xef2478
  ef2470:	21fc 0000 053f 	movel #1343,0x536
  ef2476:	0536 
  ef2478:	2078 0536      	moveal 0x536,%a0
  ef247c:	10bc 00ff      	moveb #-1,%a0@
  ef2480:	601a           	bras 0xef249c
  ef2482:	2038 0536      	movel 0x536,%d0
  ef2486:	b0b8 053a      	cmpl 0x53a,%d0
  ef248a:	6508           	bcss 0xef2494
  ef248c:	21fc 0000 053f 	movel #1343,0x536
  ef2492:	0536 
  ef2494:	2078 0536      	moveal 0x536,%a0
  ef2498:	7e7e           	moveq #126,%d7
  ef249a:	1087           	moveb %d7,%a0@
  ef249c:	52b8 0536      	addql #1,0x536
  ef24a0:	7e01           	moveq #1,%d7
  ef24a2:	11c7 0530      	moveb %d7,0x530
  ef24a6:	7000           	moveq #0,%d0
  ef24a8:	2e2e fffc      	movel %fp@(-4),%d7
  ef24ac:	4e5e           	unlk %fp
  ef24ae:	4e75           	rts
  ef24b0:	4e56 0000      	linkw %fp,#0
  ef24b4:	42b8 059a      	clrl 0x59a
  ef24b8:	7201           	moveq #1,%d1
  ef24ba:	21c1 059e      	movel %d1,0x59e
  ef24be:	7221           	moveq #33,%d1
  ef24c0:	11c1 05aa      	moveb %d1,0x5aa
  ef24c4:	21fc 0000 01f4 	movel #500,0x5a2
  ef24ca:	05a2 
  ef24cc:	727f           	moveq #127,%d1
  ef24ce:	11c1 05ab      	moveb %d1,0x5ab
  ef24d2:	4e5e           	unlk %fp
  ef24d4:	4e75           	rts
  ef24d6:	4e56 0000      	linkw %fp,#0
  ef24da:	2038 0536      	movel 0x536,%d0
  ef24de:	b0b8 053a      	cmpl 0x53a,%d0
  ef24e2:	6508           	bcss 0xef24ec
  ef24e4:	21fc 0000 053f 	movel #1343,0x536
  ef24ea:	0536 
  ef24ec:	2078 0536      	moveal 0x536,%a0
  ef24f0:	727f           	moveq #127,%d1
  ef24f2:	1081           	moveb %d1,%a0@
  ef24f4:	52b8 0536      	addql #1,0x536
  ef24f8:	4e5e           	unlk %fp
  ef24fa:	4e75           	rts
  ef24fc:	4e56 ffec      	linkw %fp,#-20
  ef2500:	48d7 00f0      	moveml %d4-%d7,%sp@
  ef2504:	2038 0532      	movel 0x532,%d0
  ef2508:	b0b8 0536      	cmpl 0x536,%d0
  ef250c:	6630           	bnes 0xef253e
  ef250e:	0c38 007f 05ab 	cmpib #127,0x5ab
  ef2514:	6722           	beqs 0xef2538
  ef2516:	2038 0484      	movel 0x484,%d0
  ef251a:	b0b8 05a6      	cmpl 0x5a6,%d0
  ef251e:	6d18           	blts 0xef2538
  ef2520:	7000           	moveq #0,%d0
  ef2522:	1038 05aa      	moveb 0x5aa,%d0
  ef2526:	d0b8 0484      	addl 0x484,%d0
  ef252a:	21c0 05a6      	movel %d0,0x5a6
  ef252e:	1e38 05ab      	moveb 0x5ab,%d7
  ef2532:	422e ffff      	clrb %fp@(-1)
  ef2536:	6028           	bras 0xef2560
  ef2538:	70ff           	moveq #-1,%d0
  ef253a:	6000 01ca      	braw 0xef2706
  ef253e:	2038 0532      	movel 0x532,%d0
  ef2542:	b0b8 053a      	cmpl 0x53a,%d0
  ef2546:	6508           	bcss 0xef2550
  ef2548:	21fc 0000 053f 	movel #1343,0x532
  ef254e:	0532 
  ef2550:	2078 0532      	moveal 0x532,%a0
  ef2554:	1e10           	moveb %a0@,%d7
  ef2556:	52b8 0532      	addql #1,0x532
  ef255a:	7001           	moveq #1,%d0
  ef255c:	1d40 ffff      	moveb %d0,%fp@(-1)
  ef2560:	1007           	moveb %d7,%d0
  ef2562:	0280 0000 007f 	andil #127,%d0
  ef2568:	1c00           	moveb %d0,%d6
  ef256a:	4ab8 059e      	tstl 0x59e
  ef256e:	6608           	bnes 0xef2578
  ef2570:	7000           	moveq #0,%d0
  ef2572:	1007           	moveb %d7,%d0
  ef2574:	6000 0190      	braw 0xef2706
  ef2578:	2038 059a      	movel 0x59a,%d0
  ef257c:	0280 0000 000e 	andil #14,%d0
  ef2582:	670c           	beqs 0xef2590
  ef2584:	2079 00ef 72ac 	moveal 0xef72ac,%a0
  ef258a:	2068 0004      	moveal %a0@(4),%a0
  ef258e:	6008           	bras 0xef2598
  ef2590:	2079 00ef 72ac 	moveal 0xef72ac,%a0
  ef2596:	2050           	moveal %a0@,%a0
  ef2598:	7000           	moveq #0,%d0
  ef259a:	1006           	moveb %d6,%d0
  ef259c:	d1c0           	addal %d0,%a0
  ef259e:	1a10           	moveb %a0@,%d5
  ef25a0:	4a2e ffff      	tstb %fp@(-1)
  ef25a4:	674c           	beqs 0xef25f2
  ef25a6:	1005           	moveb %d5,%d0
  ef25a8:	0280 0000 00f0 	andil #240,%d0
  ef25ae:	1800           	moveb %d0,%d4
  ef25b0:	0807 0007      	btst #7,%d7
  ef25b4:	6624           	bnes 0xef25da
  ef25b6:	0c05 00a3      	cmpib #-93,%d5
  ef25ba:	671e           	beqs 0xef25da
  ef25bc:	0c04 0080      	cmpib #-128,%d4
  ef25c0:	6718           	beqs 0xef25da
  ef25c2:	0c04 0090      	cmpib #-112,%d4
  ef25c6:	6712           	beqs 0xef25da
  ef25c8:	11c7 05ab      	moveb %d7,0x5ab
  ef25cc:	2038 0484      	movel 0x484,%d0
  ef25d0:	d0b8 05a2      	addl 0x5a2,%d0
  ef25d4:	21c0 05a6      	movel %d0,0x5a6
  ef25d8:	6018           	bras 0xef25f2
  ef25da:	7000           	moveq #0,%d0
  ef25dc:	1006           	moveb %d6,%d0
  ef25de:	1238 05ab      	moveb 0x5ab,%d1
  ef25e2:	0281 0000 007f 	andil #127,%d1
  ef25e8:	b081           	cmpl %d1,%d0
  ef25ea:	6606           	bnes 0xef25f2
  ef25ec:	707f           	moveq #127,%d0
  ef25ee:	11c0 05ab      	moveb %d0,0x5ab
  ef25f2:	0807 0007      	btst #7,%d7
  ef25f6:	6720           	beqs 0xef2618
  ef25f8:	0c07 00ff      	cmpib #-1,%d7
  ef25fc:	6606           	bnes 0xef2604
  ef25fe:	1a3c 00a6      	moveb #-90,%d5
  ef2602:	6014           	bras 0xef2618
  ef2604:	1005           	moveb %d5,%d0
  ef2606:	0280 0000 00f0 	andil #240,%d0
  ef260c:	0c80 0000 0080 	cmpil #128,%d0
  ef2612:	6704           	beqs 0xef2618
  ef2614:	1a3c 00a0      	moveb #-96,%d5
  ef2618:	7000           	moveq #0,%d0
  ef261a:	1005           	moveb %d5,%d0
  ef261c:	e888           	lsrl #4,%d0
  ef261e:	0c80 0000 000a 	cmpil #10,%d0
  ef2624:	6200 fede      	bhiw 0xef2504
  ef2628:	d040           	addw %d0,%d0
  ef262a:	303b 0006      	movew %pc@(0xef2632,%d0:w),%d0
  ef262e:	4efb 0002      	jmp %pc@(0xef2632,%d0:w)
  ef2632:	0016 0016      	orib #22,%fp@
  ef2636:	0016 0016      	orib #22,%fp@
  ef263a:	0016 0016      	orib #22,%fp@
  ef263e:	0016 0016      	orib #22,%fp@
  ef2642:	0046 fed2      	oriw #-302,%d6
  ef2646:	0058 2038      	oriw #8248,%a0@+
  ef264a:	059a           	bclr %d2,%a2@+
  ef264c:	7230           	moveq #48,%d1
  ef264e:	c081           	andl %d1,%d0
  ef2650:	6704           	beqs 0xef2656
  ef2652:	721f           	moveq #31,%d1
  ef2654:	ca01           	andb %d1,%d5
  ef2656:	2038 059a      	movel 0x59a,%d0
  ef265a:	0800 0000      	btst #0,%d0
  ef265e:	6710           	beqs 0xef2670
  ef2660:	7261           	moveq #97,%d1
  ef2662:	ba01           	cmpb %d1,%d5
  ef2664:	650a           	bcss 0xef2670
  ef2666:	727a           	moveq #122,%d1
  ef2668:	ba01           	cmpb %d1,%d5
  ef266a:	6204           	bhis 0xef2670
  ef266c:	72e0           	moveq #-32,%d1
  ef266e:	da01           	addb %d1,%d5
  ef2670:	7000           	moveq #0,%d0
  ef2672:	1005           	moveb %d5,%d0
  ef2674:	6000 0090      	braw 0xef2706
  ef2678:	1005           	moveb %d5,%d0
  ef267a:	720f           	moveq #15,%d1
  ef267c:	c081           	andl %d1,%d0
  ef267e:	7201           	moveq #1,%d1
  ef2680:	e1a9           	lsll %d0,%d1
  ef2682:	b3b8 059a      	eorl %d1,0x59a
  ef2686:	6000 fe7c      	braw 0xef2504
  ef268a:	7000           	moveq #0,%d0
  ef268c:	1005           	moveb %d5,%d0
  ef268e:	0480 0000 00a0 	subil #160,%d0
  ef2694:	0c80 0000 0008 	cmpil #8,%d0
  ef269a:	6200 fe68      	bhiw 0xef2504
  ef269e:	d040           	addw %d0,%d0
  ef26a0:	303b 0006      	movew %pc@(0xef26a8,%d0:w),%d0
  ef26a4:	4efb 0002      	jmp %pc@(0xef26a8,%d0:w)
  ef26a8:	fe5c fe5c      	cp1ldw %a4@+,%sp,#8,#92
  ef26ac:	fe5c 0016      	cp1ldw %a4@+,%d0,#1,#22
  ef26b0:	0020 002c      	orib #44,%a0@-
  ef26b4:	0038 0050 0038 	orib #80,0x38
  ef26ba:	6000 fe48      	braw 0xef2504
  ef26be:	2038 059a      	movel 0x59a,%d0
  ef26c2:	0800 0008      	btst #8,%d0
  ef26c6:	660c           	bnes 0xef26d4
  ef26c8:	00b8 0000 0100 	oril #256,0x59a
  ef26ce:	059a 
  ef26d0:	7013           	moveq #19,%d0
  ef26d2:	6032           	bras 0xef2706
  ef26d4:	02b8 ffff feff 	andil #-257,0x59a
  ef26da:	059a 
  ef26dc:	7011           	moveq #17,%d0
  ef26de:	6026           	bras 0xef2706
  ef26e0:	2079 00ef 72ac 	moveal 0xef72ac,%a0
  ef26e6:	2028 0014      	movel %a0@(20),%d0
  ef26ea:	c1b8 059a      	andl %d0,0x59a
  ef26ee:	707f           	moveq #127,%d0
  ef26f0:	11c0 05ab      	moveb %d0,0x5ab
  ef26f4:	6000 fe0e      	braw 0xef2504
  ef26f8:	4879 00ef 7174 	pea 0xef7174
  ef26fe:	4eba f95c      	jsr %pc@(0xef205c)
  ef2702:	584f           	addqw #4,%sp
  ef2704:	60da           	bras 0xef26e0
  ef2706:	4cee 00f0 ffec 	moveml %fp@(-20),%d4-%d7
  ef270c:	4e5e           	unlk %fp
  ef270e:	4e75           	rts
  ef2710:	4e56 fffc      	linkw %fp,#-4
  ef2714:	2e8d           	movel %a5,%sp@
  ef2716:	4879 00ef 72b0 	pea 0xef72b0
  ef271c:	4eba f93e      	jsr %pc@(0xef205c)
  ef2720:	584f           	addqw #4,%sp
  ef2722:	4879 00f0 0000 	pea 0xf00000
  ef2728:	4eba 05aa      	jsr %pc@(0xef2cd4)
  ef272c:	584f           	addqw #4,%sp
  ef272e:	4879 00ef 72c1 	pea 0xef72c1
  ef2734:	4eba f926      	jsr %pc@(0xef205c)
  ef2738:	584f           	addqw #4,%sp
  ef273a:	2a7c 00ef 72cc 	moveal #15692492,%a5
  ef2740:	4a15           	tstb %a5@
  ef2742:	6732           	beqs 0xef2776
  ef2744:	206d 0002      	moveal %a5@(2),%a0
  ef2748:	4e90           	jsr %a0@
  ef274a:	72ff           	moveq #-1,%d1
  ef274c:	b081           	cmpl %d1,%d0
  ef274e:	6720           	beqs 0xef2770
  ef2750:	102d 0001      	moveb %a5@(1),%d0
  ef2754:	4880           	extw %d0
  ef2756:	48c0           	extl %d0
  ef2758:	2f00           	movel %d0,%sp@-
  ef275a:	1015           	moveb %a5@,%d0
  ef275c:	4880           	extw %d0
  ef275e:	48c0           	extl %d0
  ef2760:	2f00           	movel %d0,%sp@-
  ef2762:	4879 00ef 72c3 	pea 0xef72c3
  ef2768:	4eba f8f2      	jsr %pc@(0xef205c)
  ef276c:	4fef 000c      	lea %sp@(12),%sp
  ef2770:	721a           	moveq #26,%d1
  ef2772:	dbc1           	addal %d1,%a5
  ef2774:	60ca           	bras 0xef2740
  ef2776:	4879 00ef 72c9 	pea 0xef72c9
  ef277c:	4eba f8de      	jsr %pc@(0xef205c)
  ef2780:	584f           	addqw #4,%sp
  ef2782:	2a6e fffc      	moveal %fp@(-4),%a5
  ef2786:	4e5e           	unlk %fp
  ef2788:	4e75           	rts
  ef278a:	0000 4e56      	orib #86,%d0
  ef278e:	ffe4           	0177744
  ef2790:	48d7 3c80      	moveml %d7/%a2-%a5,%sp@
  ef2794:	2079 00ef 000c 	moveal 0xef000c,%a0
  ef279a:	2850           	moveal %a0@,%a4
  ef279c:	97cb           	subal %a3,%a3
  ef279e:	206e 0008      	moveal %fp@(8),%a0
  ef27a2:	0c10 003f      	cmpib #63,%a0@
  ef27a6:	6700 02c2      	beqw 0xef2a6a
  ef27aa:	2d48 fffc      	movel %a0,%fp@(-4)
  ef27ae:	206e fffc      	moveal %fp@(-4),%a0
  ef27b2:	4a10           	tstb %a0@
  ef27b4:	6712           	beqs 0xef27c8
  ef27b6:	0c10 0020      	cmpib #32,%a0@
  ef27ba:	670c           	beqs 0xef27c8
  ef27bc:	0c10 0028      	cmpib #40,%a0@
  ef27c0:	6706           	beqs 0xef27c8
  ef27c2:	52ae fffc      	addql #1,%fp@(-4)
  ef27c6:	60e6           	bras 0xef27ae
  ef27c8:	2d6e fffc fff8 	movel %fp@(-4),%fp@(-8)
  ef27ce:	206e fffc      	moveal %fp@(-4),%a0
  ef27d2:	0c10 0020      	cmpib #32,%a0@
  ef27d6:	6606           	bnes 0xef27de
  ef27d8:	52ae fffc      	addql #1,%fp@(-4)
  ef27dc:	60f0           	bras 0xef27ce
  ef27de:	206e fffc      	moveal %fp@(-4),%a0
  ef27e2:	0c10 0028      	cmpib #40,%a0@
  ef27e6:	6600 008c      	bnew 0xef2874
  ef27ea:	52ae fffc      	addql #1,%fp@(-4)
  ef27ee:	202e 0008      	movel %fp@(8),%d0
  ef27f2:	5480           	addql #2,%d0
  ef27f4:	222e fff8      	movel %fp@(-8),%d1
  ef27f8:	b280           	cmpl %d0,%d1
  ef27fa:	6200 026e      	bhiw 0xef2a6a
  ef27fe:	2041           	moveal %d1,%a0
  ef2800:	4210           	clrb %a0@
  ef2802:	2a7c 00ef 72cc 	moveal #15692492,%a5
  ef2808:	4a15           	tstb %a5@
  ef280a:	671e           	beqs 0xef282a
  ef280c:	206e 0008      	moveal %fp@(8),%a0
  ef2810:	1010           	moveb %a0@,%d0
  ef2812:	b015           	cmpb %a5@,%d0
  ef2814:	660e           	bnes 0xef2824
  ef2816:	1028 0001      	moveb %a0@(1),%d0
  ef281a:	b02d 0001      	cmpb %a5@(1),%d0
  ef281e:	6604           	bnes 0xef2824
  ef2820:	2648           	moveal %a0,%a3
  ef2822:	6006           	bras 0xef282a
  ef2824:	721a           	moveq #26,%d1
  ef2826:	dbc1           	addal %d1,%a5
  ef2828:	60de           	bras 0xef2808
  ef282a:	220b           	movel %a3,%d1
  ef282c:	6700 023c      	beqw 0xef2a6a
  ef2830:	486c 0086      	pea %a4@(134)
  ef2834:	2f2e fffc      	movel %fp@(-4),%sp@-
  ef2838:	6100 0268      	bsrw 0xef2aa2
  ef283c:	504f           	addqw #8,%sp
  ef283e:	2d40 fffc      	movel %d0,%fp@(-4)
  ef2842:	486c 008a      	pea %a4@(138)
  ef2846:	2f00           	movel %d0,%sp@-
  ef2848:	6100 0258      	bsrw 0xef2aa2
  ef284c:	504f           	addqw #8,%sp
  ef284e:	2d40 fffc      	movel %d0,%fp@(-4)
  ef2852:	486c 008e      	pea %a4@(142)
  ef2856:	2f00           	movel %d0,%sp@-
  ef2858:	6100 0248      	bsrw 0xef2aa2
  ef285c:	504f           	addqw #8,%sp
  ef285e:	2d40 fffc      	movel %d0,%fp@(-4)
  ef2862:	2040           	moveal %d0,%a0
  ef2864:	4a10           	tstb %a0@
  ef2866:	6756           	beqs 0xef28be
  ef2868:	2040           	moveal %d0,%a0
  ef286a:	0c10 0029      	cmpib #41,%a0@
  ef286e:	674e           	beqs 0xef28be
  ef2870:	6000 01f8      	braw 0xef2a6a
  ef2874:	2d6e 0008 fffc 	movel %fp@(8),%fp@(-4)
  ef287a:	2a7c 00ef 72cc 	moveal #15692492,%a5
  ef2880:	4a15           	tstb %a5@
  ef2882:	671e           	beqs 0xef28a2
  ef2884:	206d 0002      	moveal %a5@(2),%a0
  ef2888:	4e90           	jsr %a0@
  ef288a:	2940 0086      	movel %d0,%a4@(134)
  ef288e:	0cac ffff ffff 	cmpil #-1,%a4@(134)
  ef2894:	0086 
  ef2896:	6704           	beqs 0xef289c
  ef2898:	264d           	moveal %a5,%a3
  ef289a:	6006           	bras 0xef28a2
  ef289c:	721a           	moveq #26,%d1
  ef289e:	dbc1           	addal %d1,%a5
  ef28a0:	60de           	bras 0xef2880
  ef28a2:	220b           	movel %a3,%d1
  ef28a4:	6610           	bnes 0xef28b6
  ef28a6:	4879 00ef 73b8 	pea 0xef73b8
  ef28ac:	4eba f7ae      	jsr %pc@(0xef205c)
  ef28b0:	584f           	addqw #4,%sp
  ef28b2:	6000 01e2      	braw 0xef2a96
  ef28b6:	42ac 008a      	clrl %a4@(138)
  ef28ba:	42ac 008e      	clrl %a4@(142)
  ef28be:	206e fffc      	moveal %fp@(-4),%a0
  ef28c2:	0c10 0029      	cmpib #41,%a0@
  ef28c6:	6604           	bnes 0xef28cc
  ef28c8:	52ae fffc      	addql #1,%fp@(-4)
  ef28cc:	206e fffc      	moveal %fp@(-4),%a0
  ef28d0:	0c10 0020      	cmpib #32,%a0@
  ef28d4:	67f2           	beqs 0xef28c8
  ef28d6:	4a10           	tstb %a0@
  ef28d8:	6706           	beqs 0xef28e0
  ef28da:	0c10 002d      	cmpib #45,%a0@
  ef28de:	661a           	bnes 0xef28fa
  ef28e0:	0cad 00ef 2b7c 	cmpil #15674236,%a5@(2)
  ef28e6:	0002 
  ef28e8:	6708           	beqs 0xef28f2
  ef28ea:	247c 00ef 73d1 	moveal #15692753,%a2
  ef28f0:	603a           	bras 0xef292c
  ef28f2:	247c 00ef 73d8 	moveal #15692760,%a2
  ef28f8:	6032           	bras 0xef292c
  ef28fa:	246e fffc      	moveal %fp@(-4),%a2
  ef28fe:	206e fffc      	moveal %fp@(-4),%a0
  ef2902:	4a10           	tstb %a0@
  ef2904:	670c           	beqs 0xef2912
  ef2906:	0c10 0020      	cmpib #32,%a0@
  ef290a:	6706           	beqs 0xef2912
  ef290c:	52ae fffc      	addql #1,%fp@(-4)
  ef2910:	60ec           	bras 0xef28fe
  ef2912:	206e fffc      	moveal %fp@(-4),%a0
  ef2916:	0c10 0020      	cmpib #32,%a0@
  ef291a:	6610           	bnes 0xef292c
  ef291c:	4210           	clrb %a0@
  ef291e:	52ae fffc      	addql #1,%fp@(-4)
  ef2922:	206e fffc      	moveal %fp@(-4),%a0
  ef2926:	0c10 0020      	cmpib #32,%a0@
  ef292a:	67f2           	beqs 0xef291e
  ef292c:	2f2e fffc      	movel %fp@(-4),%sp@-
  ef2930:	4852           	pea %a2@
  ef2932:	2f2c 008e      	movel %a4@(142),%sp@-
  ef2936:	2f2c 008a      	movel %a4@(138),%sp@-
  ef293a:	2f2c 0086      	movel %a4@(134),%sp@-
  ef293e:	102b 0001      	moveb %a3@(1),%d0
  ef2942:	4880           	extw %d0
  ef2944:	48c0           	extl %d0
  ef2946:	2f00           	movel %d0,%sp@-
  ef2948:	1013           	moveb %a3@,%d0
  ef294a:	4880           	extw %d0
  ef294c:	48c0           	extl %d0
  ef294e:	2f00           	movel %d0,%sp@-
  ef2950:	4879 00ef 73d9 	pea 0xef73d9
  ef2956:	4eba f704      	jsr %pc@(0xef205c)
  ef295a:	4fef 0020      	lea %sp@(32),%sp
  ef295e:	1953 0084      	moveb %a3@,%a4@(132)
  ef2962:	196b 0001 0085 	moveb %a3@(1),%a4@(133)
  ef2968:	294d 0096      	movel %a5,%a4@(150)
  ef296c:	41ec 0020      	lea %a4@(32),%a0
  ef2970:	2d48 fff8      	movel %a0,%fp@(-8)
  ef2974:	1093           	moveb %a3@,%a0@
  ef2976:	52ae fff8      	addql #1,%fp@(-8)
  ef297a:	206e fff8      	moveal %fp@(-8),%a0
  ef297e:	10ab 0001      	moveb %a3@(1),%a0@
  ef2982:	52ae fff8      	addql #1,%fp@(-8)
  ef2986:	206e fff8      	moveal %fp@(-8),%a0
  ef298a:	7e28           	moveq #40,%d7
  ef298c:	1087           	moveb %d7,%a0@
  ef298e:	52ae fff8      	addql #1,%fp@(-8)
  ef2992:	2f2c 0086      	movel %a4@(134),%sp@-
  ef2996:	2f2e fff8      	movel %fp@(-8),%sp@-
  ef299a:	6100 01a2      	bsrw 0xef2b3e
  ef299e:	504f           	addqw #8,%sp
  ef29a0:	2d40 fff8      	movel %d0,%fp@(-8)
  ef29a4:	2040           	moveal %d0,%a0
  ef29a6:	7e2c           	moveq #44,%d7
  ef29a8:	1087           	moveb %d7,%a0@
  ef29aa:	52ae fff8      	addql #1,%fp@(-8)
  ef29ae:	2f2c 008a      	movel %a4@(138),%sp@-
  ef29b2:	2f2e fff8      	movel %fp@(-8),%sp@-
  ef29b6:	6100 0186      	bsrw 0xef2b3e
  ef29ba:	504f           	addqw #8,%sp
  ef29bc:	2d40 fff8      	movel %d0,%fp@(-8)
  ef29c0:	2040           	moveal %d0,%a0
  ef29c2:	1087           	moveb %d7,%a0@
  ef29c4:	52ae fff8      	addql #1,%fp@(-8)
  ef29c8:	2f2c 008e      	movel %a4@(142),%sp@-
  ef29cc:	2f2e fff8      	movel %fp@(-8),%sp@-
  ef29d0:	6100 016c      	bsrw 0xef2b3e
  ef29d4:	504f           	addqw #8,%sp
  ef29d6:	2d40 fff8      	movel %d0,%fp@(-8)
  ef29da:	2040           	moveal %d0,%a0
  ef29dc:	7e29           	moveq #41,%d7
  ef29de:	1087           	moveb %d7,%a0@
  ef29e0:	52ae fff8      	addql #1,%fp@(-8)
  ef29e4:	296e fff8 0092 	movel %fp@(-8),%a4@(146)
  ef29ea:	206e fff8      	moveal %fp@(-8),%a0
  ef29ee:	52ae fff8      	addql #1,%fp@(-8)
  ef29f2:	109a           	moveb %a2@+,%a0@
  ef29f4:	66f4           	bnes 0xef29ea
  ef29f6:	41ec 0020      	lea %a4@(32),%a0
  ef29fa:	2888           	movel %a0,%a4@
  ef29fc:	7e01           	moveq #1,%d7
  ef29fe:	6046           	bras 0xef2a46
  ef2a00:	206e fffc      	moveal %fp@(-4),%a0
  ef2a04:	4a10           	tstb %a0@
  ef2a06:	674e           	beqs 0xef2a56
  ef2a08:	2007           	movel %d7,%d0
  ef2a0a:	e580           	asll #2,%d0
  ef2a0c:	29ae fff8 0800 	movel %fp@(-8),%a4@(00000000,%d0:l)
  ef2a12:	5287           	addql #1,%d7
  ef2a14:	206e fffc      	moveal %fp@(-4),%a0
  ef2a18:	4a10           	tstb %a0@
  ef2a1a:	671a           	beqs 0xef2a36
  ef2a1c:	0c10 0020      	cmpib #32,%a0@
  ef2a20:	6714           	beqs 0xef2a36
  ef2a22:	206e fff8      	moveal %fp@(-8),%a0
  ef2a26:	226e fffc      	moveal %fp@(-4),%a1
  ef2a2a:	1091           	moveb %a1@,%a0@
  ef2a2c:	52ae fffc      	addql #1,%fp@(-4)
  ef2a30:	52ae fff8      	addql #1,%fp@(-8)
  ef2a34:	60de           	bras 0xef2a14
  ef2a36:	206e fff8      	moveal %fp@(-8),%a0
  ef2a3a:	4210           	clrb %a0@
  ef2a3c:	52ae fff8      	addql #1,%fp@(-8)
  ef2a40:	7207           	moveq #7,%d1
  ef2a42:	be81           	cmpl %d1,%d7
  ef2a44:	6c10           	bges 0xef2a56
  ef2a46:	206e fffc      	moveal %fp@(-4),%a0
  ef2a4a:	0c10 0020      	cmpib #32,%a0@
  ef2a4e:	66b0           	bnes 0xef2a00
  ef2a50:	52ae fffc      	addql #1,%fp@(-4)
  ef2a54:	60f0           	bras 0xef2a46
  ef2a56:	2007           	movel %d7,%d0
  ef2a58:	e580           	asll #2,%d0
  ef2a5a:	42b4 0800      	clrl %a4@(00000000,%d0:l)
  ef2a5e:	4854           	pea %a4@
  ef2a60:	206d 0006      	moveal %a5@(6),%a0
  ef2a64:	4e90           	jsr %a0@
  ef2a66:	584f           	addqw #4,%sp
  ef2a68:	602e           	bras 0xef2a98
  ef2a6a:	4879 00ef 73f4 	pea 0xef73f4
  ef2a70:	4eba f5ea      	jsr %pc@(0xef205c)
  ef2a74:	584f           	addqw #4,%sp
  ef2a76:	2a7c 00ef 72cc 	moveal #15692492,%a5
  ef2a7c:	4a15           	tstb %a5@
  ef2a7e:	6716           	beqs 0xef2a96
  ef2a80:	2f2d 0016      	movel %a5@(22),%sp@-
  ef2a84:	4879 00ef 7443 	pea 0xef7443
  ef2a8a:	4eba f5d0      	jsr %pc@(0xef205c)
  ef2a8e:	504f           	addqw #8,%sp
  ef2a90:	721a           	moveq #26,%d1
  ef2a92:	dbc1           	addal %d1,%a5
  ef2a94:	60e6           	bras 0xef2a7c
  ef2a96:	70ff           	moveq #-1,%d0
  ef2a98:	4cee 3c80 ffe4 	moveml %fp@(-28),%d7/%a2-%a5
  ef2a9e:	4e5e           	unlk %fp
  ef2aa0:	4e75           	rts
  ef2aa2:	4e56 fff8      	linkw %fp,#-8
  ef2aa6:	48d7 2080      	moveml %d7/%a5,%sp@
  ef2aaa:	2a6e 0008      	moveal %fp@(8),%a5
  ef2aae:	7e00           	moveq #0,%d7
  ef2ab0:	0c15 0020      	cmpib #32,%a5@
  ef2ab4:	6604           	bnes 0xef2aba
  ef2ab6:	528d           	addql #1,%a5
  ef2ab8:	60f6           	bras 0xef2ab0
  ef2aba:	4a15           	tstb %a5@
  ef2abc:	6756           	beqs 0xef2b14
  ef2abe:	0c15 0030      	cmpib #48,%a5@
  ef2ac2:	6d14           	blts 0xef2ad8
  ef2ac4:	0c15 0039      	cmpib #57,%a5@
  ef2ac8:	6e0e           	bgts 0xef2ad8
  ef2aca:	2007           	movel %d7,%d0
  ef2acc:	e980           	asll #4,%d0
  ef2ace:	1215           	moveb %a5@,%d1
  ef2ad0:	4881           	extw %d1
  ef2ad2:	48c1           	extl %d1
  ef2ad4:	7e30           	moveq #48,%d7
  ef2ad6:	6032           	bras 0xef2b0a
  ef2ad8:	0c15 0061      	cmpib #97,%a5@
  ef2adc:	6d14           	blts 0xef2af2
  ef2ade:	0c15 0066      	cmpib #102,%a5@
  ef2ae2:	6e0e           	bgts 0xef2af2
  ef2ae4:	2007           	movel %d7,%d0
  ef2ae6:	e980           	asll #4,%d0
  ef2ae8:	1215           	moveb %a5@,%d1
  ef2aea:	4881           	extw %d1
  ef2aec:	48c1           	extl %d1
  ef2aee:	7e57           	moveq #87,%d7
  ef2af0:	6018           	bras 0xef2b0a
  ef2af2:	0c15 0041      	cmpib #65,%a5@
  ef2af6:	6d1c           	blts 0xef2b14
  ef2af8:	0c15 0046      	cmpib #70,%a5@
  ef2afc:	6e16           	bgts 0xef2b14
  ef2afe:	2007           	movel %d7,%d0
  ef2b00:	e980           	asll #4,%d0
  ef2b02:	1215           	moveb %a5@,%d1
  ef2b04:	4881           	extw %d1
  ef2b06:	48c1           	extl %d1
  ef2b08:	7e37           	moveq #55,%d7
  ef2b0a:	9287           	subl %d7,%d1
  ef2b0c:	d081           	addl %d1,%d0
  ef2b0e:	2e00           	movel %d0,%d7
  ef2b10:	528d           	addql #1,%a5
  ef2b12:	60a6           	bras 0xef2aba
  ef2b14:	0c15 0020      	cmpib #32,%a5@
  ef2b18:	6604           	bnes 0xef2b1e
  ef2b1a:	528d           	addql #1,%a5
  ef2b1c:	60f6           	bras 0xef2b14
  ef2b1e:	0c15 002c      	cmpib #44,%a5@
  ef2b22:	6602           	bnes 0xef2b26
  ef2b24:	528d           	addql #1,%a5
  ef2b26:	0c15 0020      	cmpib #32,%a5@
  ef2b2a:	67f8           	beqs 0xef2b24
  ef2b2c:	206e 000c      	moveal %fp@(12),%a0
  ef2b30:	2087           	movel %d7,%a0@
  ef2b32:	200d           	movel %a5,%d0
  ef2b34:	4cee 2080 fff8 	moveml %fp@(-8),%d7/%a5
  ef2b3a:	4e5e           	unlk %fp
  ef2b3c:	4e75           	rts
  ef2b3e:	4e56 fff4      	linkw %fp,#-12
  ef2b42:	48d7 20c0      	moveml %d6-%d7/%a5,%sp@
  ef2b46:	2a6e 0008      	moveal %fp@(8),%a5
  ef2b4a:	2e2e 000c      	movel %fp@(12),%d7
  ef2b4e:	2007           	movel %d7,%d0
  ef2b50:	e888           	lsrl #4,%d0
  ef2b52:	2c00           	movel %d0,%d6
  ef2b54:	670a           	beqs 0xef2b60
  ef2b56:	2f06           	movel %d6,%sp@-
  ef2b58:	4855           	pea %a5@
  ef2b5a:	61e2           	bsrs 0xef2b3e
  ef2b5c:	504f           	addqw #8,%sp
  ef2b5e:	2a40           	moveal %d0,%a5
  ef2b60:	1007           	moveb %d7,%d0
  ef2b62:	720f           	moveq #15,%d1
  ef2b64:	c081           	andl %d1,%d0
  ef2b66:	2040           	moveal %d0,%a0
  ef2b68:	d1fc 00ef 7449 	addal #15692873,%a0
  ef2b6e:	1ad0           	moveb %a0@,%a5@+
  ef2b70:	200d           	movel %a5,%d0
  ef2b72:	4cee 20c0 fff4 	moveml %fp@(-12),%d6-%d7/%a5
  ef2b78:	4e5e           	unlk %fp
  ef2b7a:	4e75           	rts
  ef2b7c:	4e56 0000      	linkw %fp,#0
  ef2b80:	70ff           	moveq #-1,%d0
  ef2b82:	4e5e           	unlk %fp
  ef2b84:	4e75           	rts
  ef2b86:	0000 4e56      	orib #86,%d0
  ef2b8a:	fff4           	0177764
  ef2b8c:	48d7 20c0      	moveml %d6-%d7/%a5,%sp@
  ef2b90:	2a6e 0008      	moveal %fp@(8),%a5
  ef2b94:	2e2e 000c      	movel %fp@(12),%d7
  ef2b98:	7c00           	moveq #0,%d6
  ef2b9a:	4a87           	tstl %d7
  ef2b9c:	6f06           	bles 0xef2ba4
  ef2b9e:	1ac6           	moveb %d6,%a5@+
  ef2ba0:	5387           	subql #1,%d7
  ef2ba2:	60f6           	bras 0xef2b9a
  ef2ba4:	4cee 20c0 fff4 	moveml %fp@(-12),%d6-%d7/%a5
  ef2baa:	4e5e           	unlk %fp
  ef2bac:	4e75           	rts
  ef2bae:	4e56 fff4      	linkw %fp,#-12
  ef2bb2:	48d7 3080      	moveml %d7/%a4-%a5,%sp@
  ef2bb6:	2a6e 0008      	moveal %fp@(8),%a5
  ef2bba:	286e 000c      	moveal %fp@(12),%a4
  ef2bbe:	3e2e 0012      	movew %fp@(18),%d7
  ef2bc2:	5347           	subqw #1,%d7
  ef2bc4:	18dd           	moveb %a5@+,%a4@+
  ef2bc6:	5347           	subqw #1,%d7
  ef2bc8:	72ff           	moveq #-1,%d1
  ef2bca:	be41           	cmpw %d1,%d7
  ef2bcc:	66f6           	bnes 0xef2bc4
  ef2bce:	4cee 3080 fff4 	moveml %fp@(-12),%d7/%a4-%a5
  ef2bd4:	4e5e           	unlk %fp
  ef2bd6:	4e75           	rts
  ef2bd8:	4e56 fff0      	linkw %fp,#-16
  ef2bdc:	48d7 30c0      	moveml %d6-%d7/%a4-%a5,%sp@
  ef2be0:	2a6e 0008      	moveal %fp@(8),%a5
  ef2be4:	7c00           	moveq #0,%d6
  ef2be6:	0c6d dabe 01fc 	cmpiw #-9538,%a5@(508)
  ef2bec:	6704           	beqs 0xef2bf2
  ef2bee:	7001           	moveq #1,%d0
  ef2bf0:	602e           	bras 0xef2c20
  ef2bf2:	2e3c 0000 0100 	movel #256,%d7
  ef2bf8:	284d           	moveal %a5,%a4
  ef2bfa:	2007           	movel %d7,%d0
  ef2bfc:	5387           	subql #1,%d7
  ef2bfe:	4a80           	tstl %d0
  ef2c00:	6708           	beqs 0xef2c0a
  ef2c02:	301c           	movew %a4@+,%d0
  ef2c04:	48c0           	extl %d0
  ef2c06:	b186           	eorl %d0,%d6
  ef2c08:	60f0           	bras 0xef2bfa
  ef2c0a:	4a86           	tstl %d6
  ef2c0c:	6710           	beqs 0xef2c1e
  ef2c0e:	4879 00ef 75a0 	pea 0xef75a0
  ef2c14:	4eba f446      	jsr %pc@(0xef205c)
  ef2c18:	584f           	addqw #4,%sp
  ef2c1a:	7001           	moveq #1,%d0
  ef2c1c:	6002           	bras 0xef2c20
  ef2c1e:	7000           	moveq #0,%d0
  ef2c20:	4cee 30c0 fff0 	moveml %fp@(-16),%d6-%d7/%a4-%a5
  ef2c26:	4e5e           	unlk %fp
  ef2c28:	4e75           	rts
  ef2c2a:	4e56 fff8      	linkw %fp,#-8
  ef2c2e:	2e87           	movel %d7,%sp@
  ef2c30:	2f2e 0010      	movel %fp@(16),%sp@-
  ef2c34:	2f2e 000c      	movel %fp@(12),%sp@-
  ef2c38:	206e 0008      	moveal %fp@(8),%a0
  ef2c3c:	4e90           	jsr %a0@
  ef2c3e:	504f           	addqw #8,%sp
  ef2c40:	4a80           	tstl %d0
  ef2c42:	6706           	beqs 0xef2c4a
  ef2c44:	7001           	moveq #1,%d0
  ef2c46:	6000 0082      	braw 0xef2cca
  ef2c4a:	2e3c 0007 a120 	movel #500000,%d7
  ef2c50:	5387           	subql #1,%d7
  ef2c52:	6efc           	bgts 0xef2c50
  ef2c54:	2f2e 0010      	movel %fp@(16),%sp@-
  ef2c58:	2f2e 000c      	movel %fp@(12),%sp@-
  ef2c5c:	206e 0008      	moveal %fp@(8),%a0
  ef2c60:	4e90           	jsr %a0@
  ef2c62:	504f           	addqw #8,%sp
  ef2c64:	4a80           	tstl %d0
  ef2c66:	6660           	bnes 0xef2cc8
  ef2c68:	4eba f5f4      	jsr %pc@(0xef225e)
  ef2c6c:	7eff           	moveq #-1,%d7
  ef2c6e:	b087           	cmpl %d7,%d0
  ef2c70:	66f6           	bnes 0xef2c68
  ef2c72:	4879 00ef 74fc 	pea 0xef74fc
  ef2c78:	4eba f3e2      	jsr %pc@(0xef205c)
  ef2c7c:	584f           	addqw #4,%sp
  ef2c7e:	2038 0484      	movel 0x484,%d0
  ef2c82:	0680 0002 bf20 	addil #180000,%d0
  ef2c88:	2d40 fffc      	movel %d0,%fp@(-4)
  ef2c8c:	2f2e 0010      	movel %fp@(16),%sp@-
  ef2c90:	2f2e 000c      	movel %fp@(12),%sp@-
  ef2c94:	206e 0008      	moveal %fp@(8),%a0
  ef2c98:	4e90           	jsr %a0@
  ef2c9a:	504f           	addqw #8,%sp
  ef2c9c:	4a80           	tstl %d0
  ef2c9e:	6628           	bnes 0xef2cc8
  ef2ca0:	4eba f5bc      	jsr %pc@(0xef225e)
  ef2ca4:	7eff           	moveq #-1,%d7
  ef2ca6:	b087           	cmpl %d7,%d0
  ef2ca8:	6704           	beqs 0xef2cae
  ef2caa:	7000           	moveq #0,%d0
  ef2cac:	601c           	bras 0xef2cca
  ef2cae:	2038 0484      	movel 0x484,%d0
  ef2cb2:	b0ae fffc      	cmpl %fp@(-4),%d0
  ef2cb6:	6fd4           	bles 0xef2c8c
  ef2cb8:	4879 00ef 75af 	pea 0xef75af
  ef2cbe:	4eba f39c      	jsr %pc@(0xef205c)
  ef2cc2:	584f           	addqw #4,%sp
  ef2cc4:	7000           	moveq #0,%d0
  ef2cc6:	6002           	bras 0xef2cca
  ef2cc8:	7002           	moveq #2,%d0
  ef2cca:	2e2e fff8      	movel %fp@(-8),%d7
  ef2cce:	4e5e           	unlk %fp
  ef2cd0:	4e75           	rts
  ef2cd2:	0000 206f      	orib #111,%d0
  ef2cd6:	0004 224f      	orib #79,%d4
  ef2cda:	2238 0008      	movel 0x8,%d1
  ef2cde:	2008           	movel %a0,%d0
  ef2ce0:	0800 0000      	btst #0,%d0
  ef2ce4:	6600 0014      	bnew 0xef2cfa
  ef2ce8:	21fc 00ef 2cfa 	movel #15674618,0x8
  ef2cee:	0008 
  ef2cf0:	7000           	moveq #0,%d0
  ef2cf2:	3010           	movew %a0@,%d0
  ef2cf4:	21c1 0008      	movel %d1,0x8
  ef2cf8:	4e75           	rts
  ef2cfa:	2e49           	moveal %a1,%sp
  ef2cfc:	70ff           	moveq #-1,%d0
  ef2cfe:	6000 fff4      	braw 0xef2cf4
  ef2d02:	206f 0004      	moveal %sp@(4),%a0
  ef2d06:	224f           	moveal %sp,%a1
  ef2d08:	2238 0008      	movel 0x8,%d1
  ef2d0c:	21fc 00ef 2cfa 	movel #15674618,0x8
  ef2d12:	0008 
  ef2d14:	10af 000b      	moveb %sp@(11),%a0@
  ef2d18:	7000           	moveq #0,%d0
  ef2d1a:	21c1 0008      	movel %d1,0x8
  ef2d1e:	4e75           	rts
  ef2d20:	206f 0004      	moveal %sp@(4),%a0
  ef2d24:	224f           	moveal %sp,%a1
  ef2d26:	2238 0008      	movel 0x8,%d1
  ef2d2a:	21fc 00ef 2cfa 	movel #15674618,0x8
  ef2d30:	0008 
  ef2d32:	30af 000a      	movew %sp@(10),%a0@
  ef2d36:	7000           	moveq #0,%d0
  ef2d38:	21c1 0008      	movel %d1,0x8
  ef2d3c:	4e75           	rts
  ef2d3e:	0000 2f0a      	orib #10,%d0
  ef2d42:	4cef 0700 0008 	moveml %sp@(8),%a0-%a2
  ef2d48:	2009           	movel %a1,%d0
  ef2d4a:	9088           	subl %a0,%d0
  ef2d4c:	673c           	beqs 0xef2d8a
  ef2d4e:	b3ca           	cmpal %a2,%a1
  ef2d50:	6f06           	bles 0xef2d58
  ef2d52:	b1ca           	cmpal %a2,%a0
  ef2d54:	6d38           	blts 0xef2d8e
  ef2d56:	6732           	beqs 0xef2d8a
  ef2d58:	e280           	asrl #1,%d0
  ef2d5a:	5180           	subql #8,%d0
  ef2d5c:	6f14           	bles 0xef2d72
  ef2d5e:	34d8           	movew %a0@+,%a2@+
  ef2d60:	34d8           	movew %a0@+,%a2@+
  ef2d62:	34d8           	movew %a0@+,%a2@+
  ef2d64:	34d8           	movew %a0@+,%a2@+
  ef2d66:	34d8           	movew %a0@+,%a2@+
  ef2d68:	34d8           	movew %a0@+,%a2@+
  ef2d6a:	34d8           	movew %a0@+,%a2@+
  ef2d6c:	34d8           	movew %a0@+,%a2@+
  ef2d6e:	5180           	subql #8,%d0
  ef2d70:	6cec           	bges 0xef2d5e
  ef2d72:	4440           	negw %d0
  ef2d74:	e340           	aslw #1,%d0
  ef2d76:	4efb 0002      	jmp %pc@(0xef2d7a,%d0:w)
  ef2d7a:	34d8           	movew %a0@+,%a2@+
  ef2d7c:	34d8           	movew %a0@+,%a2@+
  ef2d7e:	34d8           	movew %a0@+,%a2@+
  ef2d80:	34d8           	movew %a0@+,%a2@+
  ef2d82:	34d8           	movew %a0@+,%a2@+
  ef2d84:	34d8           	movew %a0@+,%a2@+
  ef2d86:	34d8           	movew %a0@+,%a2@+
  ef2d88:	34d8           	movew %a0@+,%a2@+
  ef2d8a:	245f           	moveal %sp@+,%a2
  ef2d8c:	4e75           	rts
  ef2d8e:	b5c8           	cmpal %a0,%a2
  ef2d90:	67f8           	beqs 0xef2d8a
  ef2d92:	d5c0           	addal %d0,%a2
  ef2d94:	e280           	asrl #1,%d0
  ef2d96:	5180           	subql #8,%d0
  ef2d98:	6f14           	bles 0xef2dae
  ef2d9a:	3521           	movew %a1@-,%a2@-
  ef2d9c:	3521           	movew %a1@-,%a2@-
  ef2d9e:	3521           	movew %a1@-,%a2@-
  ef2da0:	3521           	movew %a1@-,%a2@-
  ef2da2:	3521           	movew %a1@-,%a2@-
  ef2da4:	3521           	movew %a1@-,%a2@-
  ef2da6:	3521           	movew %a1@-,%a2@-
  ef2da8:	3521           	movew %a1@-,%a2@-
  ef2daa:	5180           	subql #8,%d0
  ef2dac:	6cec           	bges 0xef2d9a
  ef2dae:	4440           	negw %d0
  ef2db0:	e340           	aslw #1,%d0
  ef2db2:	4efb 0002      	jmp %pc@(0xef2db6,%d0:w)
  ef2db6:	3521           	movew %a1@-,%a2@-
  ef2db8:	3521           	movew %a1@-,%a2@-
  ef2dba:	3521           	movew %a1@-,%a2@-
  ef2dbc:	3521           	movew %a1@-,%a2@-
  ef2dbe:	3521           	movew %a1@-,%a2@-
  ef2dc0:	3521           	movew %a1@-,%a2@-
  ef2dc2:	3521           	movew %a1@-,%a2@-
  ef2dc4:	3521           	movew %a1@-,%a2@-
  ef2dc6:	60c2           	bras 0xef2d8a
  ef2dc8:	2f0a           	movel %a2,%sp@-
  ef2dca:	4cef 0700 0008 	moveml %sp@(8),%a0-%a2
  ef2dd0:	2009           	movel %a1,%d0
  ef2dd2:	9088           	subl %a0,%d0
  ef2dd4:	66b8           	bnes 0xef2d8e
  ef2dd6:	60b2           	bras 0xef2d8a
  ef2dd8:	2f0a           	movel %a2,%sp@-
  ef2dda:	4cef 0700 0008 	moveml %sp@(8),%a0-%a2
  ef2de0:	2009           	movel %a1,%d0
  ef2de2:	9088           	subl %a0,%d0
  ef2de4:	6732           	beqs 0xef2e18
  ef2de6:	e280           	asrl #1,%d0
  ef2de8:	5180           	subql #8,%d0
  ef2dea:	6f14           	bles 0xef2e00
  ef2dec:	30ca           	movew %a2,%a0@+
  ef2dee:	30ca           	movew %a2,%a0@+
  ef2df0:	30ca           	movew %a2,%a0@+
  ef2df2:	30ca           	movew %a2,%a0@+
  ef2df4:	30ca           	movew %a2,%a0@+
  ef2df6:	30ca           	movew %a2,%a0@+
  ef2df8:	30ca           	movew %a2,%a0@+
  ef2dfa:	30ca           	movew %a2,%a0@+
  ef2dfc:	5180           	subql #8,%d0
  ef2dfe:	6cec           	bges 0xef2dec
  ef2e00:	4440           	negw %d0
  ef2e02:	e340           	aslw #1,%d0
  ef2e04:	4efb 0002      	jmp %pc@(0xef2e08,%d0:w)
  ef2e08:	30ca           	movew %a2,%a0@+
  ef2e0a:	30ca           	movew %a2,%a0@+
  ef2e0c:	30ca           	movew %a2,%a0@+
  ef2e0e:	30ca           	movew %a2,%a0@+
  ef2e10:	30ca           	movew %a2,%a0@+
  ef2e12:	30ca           	movew %a2,%a0@+
  ef2e14:	30ca           	movew %a2,%a0@+
  ef2e16:	30ca           	movew %a2,%a0@+
  ef2e18:	245f           	moveal %sp@+,%a2
  ef2e1a:	4e75           	rts
  ef2e1c:	4e56 ffec      	linkw %fp,#-20
  ef2e20:	4aae 0008      	tstl %fp@(8)
  ef2e24:	6c04           	bges 0xef2e2a
  ef2e26:	42ae 0008      	clrl %fp@(8)
  ef2e2a:	4aae 000c      	tstl %fp@(12)
  ef2e2e:	6c04           	bges 0xef2e34
  ef2e30:	42ae 000c      	clrl %fp@(12)
  ef2e34:	202e 0010      	movel %fp@(16),%d0
  ef2e38:	b0b8 068e      	cmpl 0x68e,%d0
  ef2e3c:	6306           	blss 0xef2e44
  ef2e3e:	2d78 068e 0010 	movel 0x68e,%fp@(16)
  ef2e44:	202e 0014      	movel %fp@(20),%d0
  ef2e48:	b0b8 0692      	cmpl 0x692,%d0
  ef2e4c:	6306           	blss 0xef2e54
  ef2e4e:	2d78 0692 0014 	movel 0x692,%fp@(20)
  ef2e54:	4aae 0018      	tstl %fp@(24)
  ef2e58:	6c04           	bges 0xef2e5e
  ef2e5a:	42ae 0018      	clrl %fp@(24)
  ef2e5e:	4aae 001c      	tstl %fp@(28)
  ef2e62:	6c04           	bges 0xef2e68
  ef2e64:	42ae 001c      	clrl %fp@(28)
  ef2e68:	302e 000e      	movew %fp@(14),%d0
  ef2e6c:	2238 068e      	movel 0x68e,%d1
  ef2e70:	e689           	lsrl #3,%d1
  ef2e72:	c0c1           	muluw %d1,%d0
  ef2e74:	222e 0008      	movel %fp@(8),%d1
  ef2e78:	e681           	asrl #3,%d1
  ef2e7a:	d2b8 05fc      	addl 0x5fc,%d1
  ef2e7e:	d081           	addl %d1,%d0
  ef2e80:	2d40 fff8      	movel %d0,%fp@(-8)
  ef2e84:	302e 001e      	movew %fp@(30),%d0
  ef2e88:	2238 068e      	movel 0x68e,%d1
  ef2e8c:	e689           	lsrl #3,%d1
  ef2e8e:	c0c1           	muluw %d1,%d0
  ef2e90:	222e 0018      	movel %fp@(24),%d1
  ef2e94:	e681           	asrl #3,%d1
  ef2e96:	d2b8 05fc      	addl 0x5fc,%d1
  ef2e9a:	d081           	addl %d1,%d0
  ef2e9c:	2d40 fff4      	movel %d0,%fp@(-12)
  ef2ea0:	202e 0010      	movel %fp@(16),%d0
  ef2ea4:	90ae 0008      	subl %fp@(8),%d0
  ef2ea8:	e680           	asrl #3,%d0
  ef2eaa:	2d40 fff0      	movel %d0,%fp@(-16)
  ef2eae:	202e 000c      	movel %fp@(12),%d0
  ef2eb2:	b0ae 001c      	cmpl %fp@(28),%d0
  ef2eb6:	6d44           	blts 0xef2efc
  ef2eb8:	2d40 fffc      	movel %d0,%fp@(-4)
  ef2ebc:	202e fffc      	movel %fp@(-4),%d0
  ef2ec0:	b0ae 0014      	cmpl %fp@(20),%d0
  ef2ec4:	6c00 009a      	bgew 0xef2f60
  ef2ec8:	2f2e fff4      	movel %fp@(-12),%sp@-
  ef2ecc:	202e fff8      	movel %fp@(-8),%d0
  ef2ed0:	d0ae fff0      	addl %fp@(-16),%d0
  ef2ed4:	2f00           	movel %d0,%sp@-
  ef2ed6:	2f2e fff8      	movel %fp@(-8),%sp@-
  ef2eda:	4eba fe64      	jsr %pc@(0xef2d40)
  ef2ede:	4fef 000c      	lea %sp@(12),%sp
  ef2ee2:	52ae fffc      	addql #1,%fp@(-4)
  ef2ee6:	2038 068e      	movel 0x68e,%d0
  ef2eea:	e688           	lsrl #3,%d0
  ef2eec:	d1ae fff8      	addl %d0,%fp@(-8)
  ef2ef0:	2038 068e      	movel 0x68e,%d0
  ef2ef4:	e688           	lsrl #3,%d0
  ef2ef6:	d1ae fff4      	addl %d0,%fp@(-12)
  ef2efa:	60c0           	bras 0xef2ebc
  ef2efc:	202e 0014      	movel %fp@(20),%d0
  ef2f00:	90ae 000c      	subl %fp@(12),%d0
  ef2f04:	2238 068e      	movel 0x68e,%d1
  ef2f08:	e689           	lsrl #3,%d1
  ef2f0a:	c0c1           	muluw %d1,%d0
  ef2f0c:	2d40 ffec      	movel %d0,%fp@(-20)
  ef2f10:	d1ae fff8      	addl %d0,%fp@(-8)
  ef2f14:	d1ae fff4      	addl %d0,%fp@(-12)
  ef2f18:	202e 0014      	movel %fp@(20),%d0
  ef2f1c:	5380           	subql #1,%d0
  ef2f1e:	2d40 fffc      	movel %d0,%fp@(-4)
  ef2f22:	202e fffc      	movel %fp@(-4),%d0
  ef2f26:	b0ae 000c      	cmpl %fp@(12),%d0
  ef2f2a:	6d34           	blts 0xef2f60
  ef2f2c:	2f2e fff4      	movel %fp@(-12),%sp@-
  ef2f30:	202e fff8      	movel %fp@(-8),%d0
  ef2f34:	d0ae fff0      	addl %fp@(-16),%d0
  ef2f38:	2f00           	movel %d0,%sp@-
  ef2f3a:	2f2e fff8      	movel %fp@(-8),%sp@-
  ef2f3e:	4eba fe00      	jsr %pc@(0xef2d40)
  ef2f42:	4fef 000c      	lea %sp@(12),%sp
  ef2f46:	53ae fffc      	subql #1,%fp@(-4)
  ef2f4a:	2038 068e      	movel 0x68e,%d0
  ef2f4e:	e688           	lsrl #3,%d0
  ef2f50:	91ae fff8      	subl %d0,%fp@(-8)
  ef2f54:	2038 068e      	movel 0x68e,%d0
  ef2f58:	e688           	lsrl #3,%d0
  ef2f5a:	91ae fff4      	subl %d0,%fp@(-12)
  ef2f5e:	60c2           	bras 0xef2f22
  ef2f60:	4e5e           	unlk %fp
  ef2f62:	4e75           	rts
  ef2f64:	4e56 0000      	linkw %fp,#0
  ef2f68:	4a78 0660      	tstw 0x660
  ef2f6c:	6632           	bnes 0xef2fa0
  ef2f6e:	2038 0650      	movel 0x650,%d0
  ef2f72:	e588           	lsll #2,%d0
  ef2f74:	2200           	movel %d0,%d1
  ef2f76:	d281           	addl %d1,%d1
  ef2f78:	d081           	addl %d1,%d0
  ef2f7a:	d0b8 069a      	addl 0x69a,%d0
  ef2f7e:	21c0 0610      	movel %d0,0x610
  ef2f82:	2038 0654      	movel 0x654,%d0
  ef2f86:	d080           	addl %d0,%d0
  ef2f88:	2200           	movel %d0,%d1
  ef2f8a:	d281           	addl %d1,%d1
  ef2f8c:	d081           	addl %d1,%d0
  ef2f8e:	e589           	lsll #2,%d1
  ef2f90:	d081           	addl %d1,%d0
  ef2f92:	d0b8 0696      	addl 0x696,%d0
  ef2f96:	21c0 0614      	movel %d0,0x614
  ef2f9a:	7201           	moveq #1,%d1
  ef2f9c:	31c1 0660      	movew %d1,0x660
  ef2fa0:	21ee 0008 0630 	movel %fp@(8),0x630
  ef2fa6:	4878 0001      	pea 0x1
  ef2faa:	4878 0640      	pea 0x640
  ef2fae:	2f2e 000c      	movel %fp@(12),%sp@-
  ef2fb2:	2f38 0614      	movel 0x614,%sp@-
  ef2fb6:	2f38 0610      	movel 0x610,%sp@-
  ef2fba:	2f38 060c      	movel 0x60c,%sp@-
  ef2fbe:	4eba 389c      	jsr %pc@(0xef685c)
  ef2fc2:	4fef 0018      	lea %sp@(24),%sp
  ef2fc6:	4e5e           	unlk %fp
  ef2fc8:	4e75           	rts
  ef2fca:	0000 4e56      	orib #86,%d0
  ef2fce:	ffd8           	0177730
  ef2fd0:	48d7 38fc      	moveml %d2-%d7/%a3-%a5,%sp@
  ef2fd4:	2a6e 0008      	moveal %fp@(8),%a5
  ef2fd8:	286e 000c      	moveal %fp@(12),%a4
  ef2fdc:	266e 0014      	moveal %fp@(20),%a3
  ef2fe0:	7214           	moveq #20,%d1
  ef2fe2:	1d41 ffff      	moveb %d1,%fp@(-1)
  ef2fe6:	425d           	clrw %a5@+
  ef2fe8:	202e 0010      	movel %fp@(16),%d0
  ef2fec:	5380           	subql #1,%d0
  ef2fee:	3e00           	movew %d0,%d7
  ef2ff0:	72ff           	moveq #-1,%d1
  ef2ff2:	be41           	cmpw %d1,%d7
  ef2ff4:	6770           	beqs 0xef3066
  ef2ff6:	181c           	moveb %a4@+,%d4
  ef2ff8:	7c07           	moveq #7,%d6
  ef2ffa:	6024           	bras 0xef3020
  ef2ffc:	1002           	moveb %d2,%d0
  ef2ffe:	0280 0000 00f0 	andil #240,%d0
  ef3004:	8a40           	orw %d0,%d5
  ef3006:	3ac5           	movew %d5,%a5@+
  ef3008:	532e ffff      	subqb #1,%fp@(-1)
  ef300c:	6608           	bnes 0xef3016
  ef300e:	425d           	clrw %a5@+
  ef3010:	7214           	moveq #20,%d1
  ef3012:	1d41 ffff      	moveb %d1,%fp@(-1)
  ef3016:	e30c           	lslb #1,%d4
  ef3018:	5346           	subqw #1,%d6
  ef301a:	72ff           	moveq #-1,%d1
  ef301c:	bc41           	cmpw %d1,%d6
  ef301e:	6742           	beqs 0xef3062
  ef3020:	1004           	moveb %d4,%d0
  ef3022:	0280 0000 0080 	andil #128,%d0
  ef3028:	67dc           	beqs 0xef3006
  ef302a:	161b           	moveb %a3@+,%d3
  ef302c:	1003           	moveb %d3,%d0
  ef302e:	0280 0000 00ff 	andil #255,%d0
  ef3034:	2040           	moveal %d0,%a0
  ef3036:	d1ee 0018      	addal %fp@(24),%a0
  ef303a:	1010           	moveb %a0@,%d0
  ef303c:	0280 0000 00ff 	andil #255,%d0
  ef3042:	e148           	lslw #8,%d0
  ef3044:	3a00           	movew %d0,%d5
  ef3046:	7000           	moveq #0,%d0
  ef3048:	1003           	moveb %d3,%d0
  ef304a:	e288           	lsrl #1,%d0
  ef304c:	2040           	moveal %d0,%a0
  ef304e:	d1ee 001c      	addal %fp@(28),%a0
  ef3052:	1410           	moveb %a0@,%d2
  ef3054:	0803 0000      	btst #0,%d3
  ef3058:	67a2           	beqs 0xef2ffc
  ef305a:	7000           	moveq #0,%d0
  ef305c:	1002           	moveb %d2,%d0
  ef305e:	e988           	lsll #4,%d0
  ef3060:	609c           	bras 0xef2ffe
  ef3062:	5347           	subqw #1,%d7
  ef3064:	608a           	bras 0xef2ff0
  ef3066:	4cee 38fc ffd8 	moveml %fp@(-40),%d2-%d7/%a3-%a5
  ef306c:	4e5e           	unlk %fp
  ef306e:	4e75           	rts
  ef3070:	4e56 fff0      	linkw %fp,#-16
  ef3074:	202e 0010      	movel %fp@(16),%d0
  ef3078:	90ae 0008      	subl %fp@(8),%d0
  ef307c:	e680           	asrl #3,%d0
  ef307e:	2d40 fff8      	movel %d0,%fp@(-8)
  ef3082:	0cb8 0000 001e 	cmpil #30,0x66a
  ef3088:	066a 
  ef308a:	6604           	bnes 0xef3090
  ef308c:	70ff           	moveq #-1,%d0
  ef308e:	6002           	bras 0xef3092
  ef3090:	7000           	moveq #0,%d0
  ef3092:	2d40 fff4      	movel %d0,%fp@(-12)
  ef3096:	3d6e 000e fff2 	movew %fp@(14),%fp@(-14)
  ef309c:	2238 068e      	movel 0x68e,%d1
  ef30a0:	e689           	lsrl #3,%d1
  ef30a2:	302e fff2      	movew %fp@(-14),%d0
  ef30a6:	c0c1           	muluw %d1,%d0
  ef30a8:	d0b8 05fc      	addl 0x5fc,%d0
  ef30ac:	222e 0008      	movel %fp@(8),%d1
  ef30b0:	e681           	asrl #3,%d1
  ef30b2:	d081           	addl %d1,%d0
  ef30b4:	2d40 fffc      	movel %d0,%fp@(-4)
  ef30b8:	7000           	moveq #0,%d0
  ef30ba:	302e fff2      	movew %fp@(-14),%d0
  ef30be:	b0ae 0014      	cmpl %fp@(20),%d0
  ef30c2:	642a           	bccs 0xef30ee
  ef30c4:	2f2e fff4      	movel %fp@(-12),%sp@-
  ef30c8:	202e fffc      	movel %fp@(-4),%d0
  ef30cc:	d0ae fff8      	addl %fp@(-8),%d0
  ef30d0:	2f00           	movel %d0,%sp@-
  ef30d2:	2f2e fffc      	movel %fp@(-4),%sp@-
  ef30d6:	4eba fd00      	jsr %pc@(0xef2dd8)
  ef30da:	4fef 000c      	lea %sp@(12),%sp
  ef30de:	526e fff2      	addqw #1,%fp@(-14)
  ef30e2:	2038 068e      	movel 0x68e,%d0
  ef30e6:	e688           	lsrl #3,%d0
  ef30e8:	d1ae fffc      	addl %d0,%fp@(-4)
  ef30ec:	60ca           	bras 0xef30b8
  ef30ee:	4e5e           	unlk %fp
  ef30f0:	4e75           	rts
  ef30f2:	4e56 fff4      	linkw %fp,#-12
  ef30f6:	48d7 3080      	moveml %d7/%a4-%a5,%sp@
  ef30fa:	7eff           	moveq #-1,%d7
  ef30fc:	2a78 05fc      	moveal 0x5fc,%a5
  ef3100:	2038 05fc      	movel 0x5fc,%d0
  ef3104:	0680 0002 0000 	addil #131072,%d0
  ef310a:	2840           	moveal %d0,%a4
  ef310c:	bbcc           	cmpal %a4,%a5
  ef310e:	6406           	bccs 0xef3116
  ef3110:	bf95           	eorl %d7,%a5@
  ef3112:	588d           	addql #4,%a5
  ef3114:	60f6           	bras 0xef310c
  ef3116:	4cee 3080 fff4 	moveml %fp@(-12),%d7/%a4-%a5
  ef311c:	4e5e           	unlk %fp
  ef311e:	4e75           	rts
  ef3120:	4e56 fff8      	linkw %fp,#-8
  ef3124:	4879 00ef 7ad2 	pea 0xef7ad2
  ef312a:	4879 00ef 79fc 	pea 0xef79fc
  ef3130:	4879 00ef 76b0 	pea 0xef76b0
  ef3136:	4878 00f0      	pea 0xf0
  ef313a:	4879 00ef 75c0 	pea 0xef75c0
  ef3140:	2f38 064c      	movel 0x64c,%sp@-
  ef3144:	4eba fe86      	jsr %pc@(0xef2fcc)
  ef3148:	4fef 0018      	lea %sp@(24),%sp
  ef314c:	41f9 00ee 3800 	lea 0xee3800,%a0
  ef3152:	3d50 fffe      	movew %a0@,%fp@(-2)
  ef3156:	08ee 0007 fffe 	bset #7,%fp@(-2)
  ef315c:	41ee fffe      	lea %fp@(-2),%a0
  ef3160:	33d0 00ee 3800 	movew %a0@,0xee3800
  ef3166:	7000           	moveq #0,%d0
  ef3168:	1039 00ee 3800 	moveb 0xee3800,%d0
  ef316e:	7201           	moveq #1,%d1
  ef3170:	c001           	andb %d1,%d0
  ef3172:	2d40 fffa      	movel %d0,%fp@(-6)
  ef3176:	671c           	beqs 0xef3194
  ef3178:	21fc 0000 0400 	movel #1024,0x68e
  ef317e:	068e 
  ef3180:	21fc 0000 0400 	movel #1024,0x692
  ef3186:	0692 
  ef3188:	21fc 0000 0080 	movel #128,0x696
  ef318e:	0696 
  ef3190:	7210           	moveq #16,%d1
  ef3192:	6018           	bras 0xef31ac
  ef3194:	21fc 0000 0480 	movel #1152,0x68e
  ef319a:	068e 
  ef319c:	21fc 0000 0384 	movel #900,0x692
  ef31a2:	0692 
  ef31a4:	7238           	moveq #56,%d1
  ef31a6:	21c1 0696      	movel %d1,0x696
  ef31aa:	7240           	moveq #64,%d1
  ef31ac:	21c1 069a      	movel %d1,0x69a
  ef31b0:	21fc 00ec 0000 	movel #15466496,0x5fc
  ef31b6:	05fc 
  ef31b8:	2038 068e      	movel 0x68e,%d0
  ef31bc:	e688           	lsrl #3,%d0
  ef31be:	21c0 05f8      	movel %d0,0x5f8
  ef31c2:	42b8 0600      	clrl 0x600
  ef31c6:	42b8 0604      	clrl 0x604
  ef31ca:	21fc 0000 05f8 	movel #1528,0x5f4
  ef31d0:	05f4 
  ef31d2:	21fc 0000 05e4 	movel #1508,0x60c
  ef31d8:	060c 
  ef31da:	7202           	moveq #2,%d1
  ef31dc:	21c1 062c      	movel %d1,0x62c
  ef31e0:	42b8 0634      	clrl 0x634
  ef31e4:	42b8 0638      	clrl 0x638
  ef31e8:	720c           	moveq #12,%d1
  ef31ea:	21c1 061c      	movel %d1,0x61c
  ef31ee:	7216           	moveq #22,%d1
  ef31f0:	21c1 0620      	movel %d1,0x620
  ef31f4:	21fc 0000 062c 	movel #1580,0x628
  ef31fa:	0628 
  ef31fc:	21fc 0000 0618 	movel #1560,0x640
  ef3202:	0640 
  ef3204:	42b8 0644      	clrl 0x644
  ef3208:	42b8 0648      	clrl 0x648
  ef320c:	42b8 066a      	clrl 0x66a
  ef3210:	7218           	moveq #24,%d1
  ef3212:	21c1 0666      	movel %d1,0x666
  ef3216:	42b8 066e      	clrl 0x66e
  ef321a:	7201           	moveq #1,%d1
  ef321c:	21c1 0672      	movel %d1,0x672
  ef3220:	21c1 0682      	movel %d1,0x682
  ef3224:	2f2e 000c      	movel %fp@(12),%sp@-
  ef3228:	2f2e 0008      	movel %fp@(8),%sp@-
  ef322c:	4eba 05ae      	jsr %pc@(0xef37dc)
  ef3230:	504f           	addqw #8,%sp
  ef3232:	4e5e           	unlk %fp
  ef3234:	4e75           	rts
  ef3236:	0000 4e56      	orib #86,%d0
  ef323a:	0000 4878      	orib #120,%d0
  ef323e:	0001 486e      	orib #110,%d1
  ef3242:	000b           	013
  ef3244:	6106           	bsrs 0xef324c
  ef3246:	504f           	addqw #8,%sp
  ef3248:	4e5e           	unlk %fp
  ef324a:	4e75           	rts
  ef324c:	4e56 ffe8      	linkw %fp,#-24
  ef3250:	48d7 20c0      	moveml %d6-%d7/%a5,%sp@
  ef3254:	2a6e 0008      	moveal %fp@(8),%a5
  ef3258:	3e2e 000e      	movew %fp@(14),%d7
  ef325c:	6100 05ca      	bsrw 0xef3828
  ef3260:	5347           	subqw #1,%d7
  ef3262:	70ff           	moveq #-1,%d0
  ef3264:	be40           	cmpw %d0,%d7
  ef3266:	6700 0568      	beqw 0xef37d0
  ef326a:	1c1d           	moveb %a5@+,%d6
  ef326c:	2038 066e      	movel 0x66e,%d0
  ef3270:	0800 0007      	btst #7,%d0
  ef3274:	6700 0090      	beqw 0xef3306
  ef3278:	1006           	moveb %d6,%d0
  ef327a:	4880           	extw %d0
  ef327c:	48c0           	extl %d0
  ef327e:	67e0           	beqs 0xef3260
  ef3280:	0c80 0000 000a 	cmpil #10,%d0
  ef3286:	67d8           	beqs 0xef3260
  ef3288:	0c80 0000 000c 	cmpil #12,%d0
  ef328e:	6740           	beqs 0xef32d0
  ef3290:	0c80 0000 000d 	cmpil #13,%d0
  ef3296:	67c8           	beqs 0xef3260
  ef3298:	0c80 0000 001b 	cmpil #27,%d0
  ef329e:	67c0           	beqs 0xef3260
  ef32a0:	0c80 0000 003f 	cmpil #63,%d0
  ef32a6:	6754           	beqs 0xef32fc
  ef32a8:	0c80 0000 005b 	cmpil #91,%d0
  ef32ae:	6712           	beqs 0xef32c2
  ef32b0:	0c80 0000 007f 	cmpil #127,%d0
  ef32b6:	67a8           	beqs 0xef3260
  ef32b8:	02b8 ffff ff7f 	andil #-129,0x66e
  ef32be:	066e 
  ef32c0:	609e           	bras 0xef3260
  ef32c2:	7002           	moveq #2,%d0
  ef32c4:	21c0 066e      	movel %d0,0x66e
  ef32c8:	7001           	moveq #1,%d0
  ef32ca:	21c0 0672      	movel %d0,0x672
  ef32ce:	6090           	bras 0xef3260
  ef32d0:	42b8 066e      	clrl 0x66e
  ef32d4:	7201           	moveq #1,%d1
  ef32d6:	21c1 0672      	movel %d1,0x672
  ef32da:	42a7           	clrl %sp@-
  ef32dc:	42a7           	clrl %sp@-
  ef32de:	6100 04fc      	bsrw 0xef37dc
  ef32e2:	504f           	addqw #8,%sp
  ef32e4:	2f38 0692      	movel 0x692,%sp@-
  ef32e8:	2f38 068e      	movel 0x68e,%sp@-
  ef32ec:	42a7           	clrl %sp@-
  ef32ee:	42a7           	clrl %sp@-
  ef32f0:	4eba fd7e      	jsr %pc@(0xef3070)
  ef32f4:	4fef 0010      	lea %sp@(16),%sp
  ef32f8:	6000 ff66      	braw 0xef3260
  ef32fc:	7c7f           	moveq #127,%d6
  ef32fe:	02b8 ffff ff7f 	andil #-129,0x66e
  ef3304:	066e 
  ef3306:	2038 066e      	movel 0x66e,%d0
  ef330a:	6722           	beqs 0xef332e
  ef330c:	0c80 0000 0001 	cmpil #1,%d0
  ef3312:	6700 04ac      	beqw 0xef37c0
  ef3316:	0c80 0000 0002 	cmpil #2,%d0
  ef331c:	6700 0222      	beqw 0xef3540
  ef3320:	42b8 066e      	clrl 0x66e
  ef3324:	7001           	moveq #1,%d0
  ef3326:	21c0 0672      	movel %d0,0x672
  ef332a:	6000 ff40      	braw 0xef326c
  ef332e:	42b8 0676      	clrl 0x676
  ef3332:	70ff           	moveq #-1,%d0
  ef3334:	21c0 067a      	movel %d0,0x67a
  ef3338:	1006           	moveb %d6,%d0
  ef333a:	4880           	extw %d0
  ef333c:	48c0           	extl %d0
  ef333e:	0c80 0000 007f 	cmpil #127,%d0
  ef3344:	6200 019a      	bhiw 0xef34e0
  ef3348:	41fa 01e8      	lea %pc@(0xef3532),%a0
  ef334c:	7208           	moveq #8,%d1
  ef334e:	b018           	cmpb %a0@+,%d0
  ef3350:	54c9 fffc      	dbcc %d1,0xef334e
  ef3354:	6600 018a      	bnew 0xef34e0
  ef3358:	d241           	addw %d1,%d1
  ef335a:	303b 1006      	movew %pc@(0xef3362,%d1:w),%d0
  ef335e:	4efb 0002      	jmp %pc@(0xef3362,%d0:w)
  ef3362:	0012 001a      	orib #26,%a2@
  ef3366:	0030 004a 0130 	orib #74,%a0@(01460164,%d0:w)
  ef336c:	0146 0164 
  ef3370:	0172 fefe      	bchg %d0,%a2@(fffffffe,%sp:l:8)
  ef3374:	6100 04f4      	bsrw 0xef386a
  ef3378:	6000 fee6      	braw 0xef3260
  ef337c:	2f38 0654      	movel 0x654,%sp@-
  ef3380:	2038 0650      	movel 0x650,%d0
  ef3384:	5380           	subql #1,%d0
  ef3386:	2f00           	movel %d0,%sp@-
  ef3388:	6100 0452      	bsrw 0xef37dc
  ef338c:	504f           	addqw #8,%sp
  ef338e:	6000 fed0      	braw 0xef3260
  ef3392:	2f38 0654      	movel 0x654,%sp@-
  ef3396:	2038 0650      	movel 0x650,%d0
  ef339a:	72f8           	moveq #-8,%d1
  ef339c:	c081           	andl %d1,%d0
  ef339e:	5080           	addql #8,%d0
  ef33a0:	2f00           	movel %d0,%sp@-
  ef33a2:	6100 0438      	bsrw 0xef37dc
  ef33a6:	504f           	addqw #8,%sp
  ef33a8:	6000 feb6      	braw 0xef3260
  ef33ac:	0cb8 0000 0021 	cmpil #33,0x654
  ef33b2:	0654 
  ef33b4:	6c28           	bges 0xef33de
  ef33b6:	52b8 0654      	addql #1,0x654
  ef33ba:	7016           	moveq #22,%d0
  ef33bc:	d1b8 0614      	addl %d0,0x614
  ef33c0:	4ab8 0682      	tstl 0x682
  ef33c4:	6600 fe9a      	bnew 0xef3260
  ef33c8:	2f38 0654      	movel 0x654,%sp@-
  ef33cc:	4878 0050      	pea 0x50
  ef33d0:	42a7           	clrl %sp@-
  ef33d2:	4eba 0638      	jsr %pc@(0xef3a0c)
  ef33d6:	4fef 000c      	lea %sp@(12),%sp
  ef33da:	6000 fe84      	braw 0xef3260
  ef33de:	4ab8 0682      	tstl 0x682
  ef33e2:	6622           	bnes 0xef3406
  ef33e4:	42a7           	clrl %sp@-
  ef33e6:	2f38 0650      	movel 0x650,%sp@-
  ef33ea:	6100 03f0      	bsrw 0xef37dc
  ef33ee:	504f           	addqw #8,%sp
  ef33f0:	2f38 0654      	movel 0x654,%sp@-
  ef33f4:	4878 0050      	pea 0x50
  ef33f8:	42a7           	clrl %sp@-
  ef33fa:	4eba 0610      	jsr %pc@(0xef3a0c)
  ef33fe:	4fef 000c      	lea %sp@(12),%sp
  ef3402:	6000 fe5c      	braw 0xef3260
  ef3406:	2d78 0682 fffc 	movel 0x682,%fp@(-4)
  ef340c:	0cae 0000 0001 	cmpil #1,%fp@(-4)
  ef3412:	fffc 
  ef3414:	663a           	bnes 0xef3450
  ef3416:	2d4d fff8      	movel %a5,%fp@(-8)
  ef341a:	3d47 fff6      	movew %d7,%fp@(-10)
  ef341e:	5347           	subqw #1,%d7
  ef3420:	72ff           	moveq #-1,%d1
  ef3422:	be41           	cmpw %d1,%d7
  ef3424:	6722           	beqs 0xef3448
  ef3426:	0c15 000a      	cmpib #10,%a5@
  ef342a:	6606           	bnes 0xef3432
  ef342c:	52ae fffc      	addql #1,%fp@(-4)
  ef3430:	6012           	bras 0xef3444
  ef3432:	0c15 000d      	cmpib #13,%a5@
  ef3436:	670c           	beqs 0xef3444
  ef3438:	0c15 0020      	cmpib #32,%a5@
  ef343c:	6406           	bccs 0xef3444
  ef343e:	0c15 000a      	cmpib #10,%a5@
  ef3442:	6204           	bhis 0xef3448
  ef3444:	528d           	addql #1,%a5
  ef3446:	60d6           	bras 0xef341e
  ef3448:	3e2e fff6      	movew %fp@(-10),%d7
  ef344c:	2a6e fff8      	moveal %fp@(-8),%a5
  ef3450:	0cae 0000 0022 	cmpil #34,%fp@(-4)
  ef3456:	fffc 
  ef3458:	6f06           	bles 0xef3460
  ef345a:	7222           	moveq #34,%d1
  ef345c:	2d41 fffc      	movel %d1,%fp@(-4)
  ef3460:	2f2e fffc      	movel %fp@(-4),%sp@-
  ef3464:	42a7           	clrl %sp@-
  ef3466:	4eba 0478      	jsr %pc@(0xef38e0)
  ef346a:	504f           	addqw #8,%sp
  ef346c:	0cae 0000 0001 	cmpil #1,%fp@(-4)
  ef3472:	fffc 
  ef3474:	6700 fdea      	beqw 0xef3260
  ef3478:	2038 0654      	movel 0x654,%d0
  ef347c:	5280           	addql #1,%d0
  ef347e:	90ae fffc      	subl %fp@(-4),%d0
  ef3482:	2f00           	movel %d0,%sp@-
  ef3484:	2f38 0650      	movel 0x650,%sp@-
  ef3488:	6100 0352      	bsrw 0xef37dc
  ef348c:	504f           	addqw #8,%sp
  ef348e:	6000 fdd0      	braw 0xef3260
  ef3492:	2038 0654      	movel 0x654,%d0
  ef3496:	5380           	subql #1,%d0
  ef3498:	2f00           	movel %d0,%sp@-
  ef349a:	2f38 0650      	movel 0x650,%sp@-
  ef349e:	6100 033c      	bsrw 0xef37dc
  ef34a2:	504f           	addqw #8,%sp
  ef34a4:	6000 fdba      	braw 0xef3260
  ef34a8:	42a7           	clrl %sp@-
  ef34aa:	42a7           	clrl %sp@-
  ef34ac:	6100 032e      	bsrw 0xef37dc
  ef34b0:	504f           	addqw #8,%sp
  ef34b2:	2f38 0692      	movel 0x692,%sp@-
  ef34b6:	2f38 068e      	movel 0x68e,%sp@-
  ef34ba:	42a7           	clrl %sp@-
  ef34bc:	42a7           	clrl %sp@-
  ef34be:	4eba fbb0      	jsr %pc@(0xef3070)
  ef34c2:	4fef 0010      	lea %sp@(16),%sp
  ef34c6:	42b8 0650      	clrl 0x650
  ef34ca:	21f8 069a 0610 	movel 0x69a,0x610
  ef34d0:	6000 fd8e      	braw 0xef3260
  ef34d4:	00b8 0000 0080 	oril #128,0x66e
  ef34da:	066e 
  ef34dc:	6000 fd82      	braw 0xef3260
  ef34e0:	7020           	moveq #32,%d0
  ef34e2:	9c00           	subb %d0,%d6
  ef34e4:	4a06           	tstb %d6
  ef34e6:	6d00 fd78      	bltw 0xef3260
  ef34ea:	2f38 0666      	movel 0x666,%sp@-
  ef34ee:	1006           	moveb %d6,%d0
  ef34f0:	4880           	extw %d0
  ef34f2:	48c0           	extl %d0
  ef34f4:	d080           	addl %d0,%d0
  ef34f6:	2200           	movel %d0,%d1
  ef34f8:	e589           	lsll #2,%d1
  ef34fa:	d081           	addl %d1,%d0
  ef34fc:	e589           	lsll #2,%d1
  ef34fe:	d081           	addl %d1,%d0
  ef3500:	d0b8 064c      	addl 0x64c,%d0
  ef3504:	2f00           	movel %d0,%sp@-
  ef3506:	4eba fa5c      	jsr %pc@(0xef2f64)
  ef350a:	504f           	addqw #8,%sp
  ef350c:	0cb8 0000 004f 	cmpil #79,0x650
  ef3512:	0650 
  ef3514:	6c0e           	bges 0xef3524
  ef3516:	52b8 0650      	addql #1,0x650
  ef351a:	700c           	moveq #12,%d0
  ef351c:	d1b8 0610      	addl %d0,0x610
  ef3520:	6000 fd3e      	braw 0xef3260
  ef3524:	42b8 0650      	clrl 0x650
  ef3528:	21f8 069a 0610 	movel 0x69a,0x610
  ef352e:	6000 fe7c      	braw 0xef33ac
  ef3532:	7f1b           	mvsb %a3@+,%d7
  ef3534:	0d0c 0b0a      	movepw %a4@(2826),%d6
  ef3538:	0908 0700      	movepw %a0@(1792),%d4
  ef353c:	6000 fd22      	braw 0xef3260
  ef3540:	7030           	moveq #48,%d0
  ef3542:	bc00           	cmpb %d0,%d6
  ef3544:	6d2c           	blts 0xef3572
  ef3546:	7039           	moveq #57,%d0
  ef3548:	bc00           	cmpb %d0,%d6
  ef354a:	6e26           	bgts 0xef3572
  ef354c:	1038 0679      	moveb 0x679,%d0
  ef3550:	4880           	extw %d0
  ef3552:	48c0           	extl %d0
  ef3554:	d080           	addl %d0,%d0
  ef3556:	2200           	movel %d0,%d1
  ef3558:	e589           	lsll #2,%d1
  ef355a:	d081           	addl %d1,%d0
  ef355c:	1206           	moveb %d6,%d1
  ef355e:	4881           	extw %d1
  ef3560:	48c1           	extl %d1
  ef3562:	d081           	addl %d1,%d0
  ef3564:	0480 0000 0030 	subil #48,%d0
  ef356a:	21c0 0676      	movel %d0,0x676
  ef356e:	6000 fcf0      	braw 0xef3260
  ef3572:	703b           	moveq #59,%d0
  ef3574:	bc00           	cmpb %d0,%d6
  ef3576:	660e           	bnes 0xef3586
  ef3578:	21f8 0676 067a 	movel 0x676,0x67a
  ef357e:	42b8 0676      	clrl 0x676
  ef3582:	6000 fcdc      	braw 0xef3260
  ef3586:	21f8 0676 067e 	movel 0x676,0x67e
  ef358c:	4ab8 0676      	tstl 0x676
  ef3590:	6606           	bnes 0xef3598
  ef3592:	7001           	moveq #1,%d0
  ef3594:	21c0 0676      	movel %d0,0x676
  ef3598:	1006           	moveb %d6,%d0
  ef359a:	4880           	extw %d0
  ef359c:	48c0           	extl %d0
  ef359e:	0480 0000 0040 	subil #64,%d0
  ef35a4:	0c80 0000 0033 	cmpil #51,%d0
  ef35aa:	6200 01fc      	bhiw 0xef37a8
  ef35ae:	d040           	addw %d0,%d0
  ef35b0:	303b 0006      	movew %pc@(0xef35b8,%d0:w),%d0
  ef35b4:	4efb 0002      	jmp %pc@(0xef35b8,%d0:w)
  ef35b8:	0068 0086 009e 	oriw #134,%a0@(158)
  ef35be:	00b6 00ce 00e6 	oril #13500646,@(01f000fc)
  ef35c4:	01f0 01f0 00fc 
  ef35ca:	01f0 0130 0142 	bset %d0,%a0@(0142015a,%d0:w)
  ef35d0:	015a 
  ef35d2:	0172 01f0 01f0 	bchg %d0,@(01f00188)
  ef35d8:	0188 
  ef35da:	01f0 01f0 01f0 	bset %d0,@(01f001f0)
  ef35e0:	01f0 
  ef35e2:	01f0 01f0 01f0 	bset %d0,@(01f001f0)
  ef35e8:	01f0 
  ef35ea:	01f0 01f0 01f0 	bset %d0,@(01f001f0)
  ef35f0:	01f0 
  ef35f2:	01f0 01f0 01f0 	bset %d0,@(01f001f0)
  ef35f8:	01f0 
  ef35fa:	01f0 01f0 01f0 	bset %d0,@(01f001f0)
  ef3600:	01f0 
  ef3602:	01f0 00fc      	bset %d0,%a0@(fffffffc,%d0:w)
  ef3606:	01f0 01f0 01f0 	bset %d0,@(01f001f0)
  ef360c:	01f0 
  ef360e:	01f0 01f0 01a4 	bset %d0,@(01a401f0)
  ef3614:	01f0 
  ef3616:	01f0 01bc 01c8 	bset %d0,@(01c801d8)@(00000000,%d0:w)
  ef361c:	01d8 
  ef361e:	01e0           	bset %d0,%a0@-
  ef3620:	2f38 0654      	movel 0x654,%sp@-
  ef3624:	2038 0650      	movel 0x650,%d0
  ef3628:	d0b8 0676      	addl 0x676,%d0
  ef362c:	2f00           	movel %d0,%sp@-
  ef362e:	2f38 0650      	movel 0x650,%sp@-
  ef3632:	4eba 052a      	jsr %pc@(0xef3b5e)
  ef3636:	4fef 000c      	lea %sp@(12),%sp
  ef363a:	6000 017c      	braw 0xef37b8
  ef363e:	2038 0654      	movel 0x654,%d0
  ef3642:	90b8 0676      	subl 0x676,%d0
  ef3646:	2f00           	movel %d0,%sp@-
  ef3648:	2f38 0650      	movel 0x650,%sp@-
  ef364c:	6100 018e      	bsrw 0xef37dc
  ef3650:	504f           	addqw #8,%sp
  ef3652:	6000 0164      	braw 0xef37b8
  ef3656:	2038 0654      	movel 0x654,%d0
  ef365a:	d0b8 0676      	addl 0x676,%d0
  ef365e:	2f00           	movel %d0,%sp@-
  ef3660:	2f38 0650      	movel 0x650,%sp@-
  ef3664:	6100 0176      	bsrw 0xef37dc
  ef3668:	504f           	addqw #8,%sp
  ef366a:	6000 014c      	braw 0xef37b8
  ef366e:	2f38 0654      	movel 0x654,%sp@-
  ef3672:	2038 0650      	movel 0x650,%d0
  ef3676:	d0b8 0676      	addl 0x676,%d0
  ef367a:	2f00           	movel %d0,%sp@-
  ef367c:	6100 015e      	bsrw 0xef37dc
  ef3680:	504f           	addqw #8,%sp
  ef3682:	6000 0134      	braw 0xef37b8
  ef3686:	2f38 0654      	movel 0x654,%sp@-
  ef368a:	2038 0650      	movel 0x650,%d0
  ef368e:	90b8 0676      	subl 0x676,%d0
  ef3692:	2f00           	movel %d0,%sp@-
  ef3694:	6100 0146      	bsrw 0xef37dc
  ef3698:	504f           	addqw #8,%sp
  ef369a:	6000 011c      	braw 0xef37b8
  ef369e:	2038 0654      	movel 0x654,%d0
  ef36a2:	d0b8 0676      	addl 0x676,%d0
  ef36a6:	2f00           	movel %d0,%sp@-
  ef36a8:	42a7           	clrl %sp@-
  ef36aa:	6100 0130      	bsrw 0xef37dc
  ef36ae:	504f           	addqw #8,%sp
  ef36b0:	6000 0106      	braw 0xef37b8
  ef36b4:	4ab8 067a      	tstl 0x67a
  ef36b8:	6c14           	bges 0xef36ce
  ef36ba:	2038 0676      	movel 0x676,%d0
  ef36be:	5380           	subql #1,%d0
  ef36c0:	2f00           	movel %d0,%sp@-
  ef36c2:	42a7           	clrl %sp@-
  ef36c4:	6100 0116      	bsrw 0xef37dc
  ef36c8:	504f           	addqw #8,%sp
  ef36ca:	6000 00ec      	braw 0xef37b8
  ef36ce:	2038 067a      	movel 0x67a,%d0
  ef36d2:	5380           	subql #1,%d0
  ef36d4:	2f00           	movel %d0,%sp@-
  ef36d6:	2038 0676      	movel 0x676,%d0
  ef36da:	5380           	subql #1,%d0
  ef36dc:	2f00           	movel %d0,%sp@-
  ef36de:	6100 00fc      	bsrw 0xef37dc
  ef36e2:	504f           	addqw #8,%sp
  ef36e4:	6000 00d2      	braw 0xef37b8
  ef36e8:	4878 0022      	pea 0x22
  ef36ec:	2038 0654      	movel 0x654,%d0
  ef36f0:	5280           	addql #1,%d0
  ef36f2:	2f00           	movel %d0,%sp@-
  ef36f4:	4eba 01ea      	jsr %pc@(0xef38e0)
  ef36f8:	504f           	addqw #8,%sp
  ef36fa:	2f38 0654      	movel 0x654,%sp@-
  ef36fe:	4878 0050      	pea 0x50
  ef3702:	2f38 0650      	movel 0x650,%sp@-
  ef3706:	4eba 0304      	jsr %pc@(0xef3a0c)
  ef370a:	4fef 000c      	lea %sp@(12),%sp
  ef370e:	6000 00a8      	braw 0xef37b8
  ef3712:	2038 0654      	movel 0x654,%d0
  ef3716:	d0b8 0676      	addl 0x676,%d0
  ef371a:	2f00           	movel %d0,%sp@-
  ef371c:	2f38 0654      	movel 0x654,%sp@-
  ef3720:	4eba 0254      	jsr %pc@(0xef3976)
  ef3724:	504f           	addqw #8,%sp
  ef3726:	6000 0090      	braw 0xef37b8
  ef372a:	2038 0654      	movel 0x654,%d0
  ef372e:	d0b8 0676      	addl 0x676,%d0
  ef3732:	2f00           	movel %d0,%sp@-
  ef3734:	2f38 0654      	movel 0x654,%sp@-
  ef3738:	4eba 01a6      	jsr %pc@(0xef38e0)
  ef373c:	504f           	addqw #8,%sp
  ef373e:	6078           	bras 0xef37b8
  ef3740:	2f38 0654      	movel 0x654,%sp@-
  ef3744:	2038 0650      	movel 0x650,%d0
  ef3748:	d0b8 0676      	addl 0x676,%d0
  ef374c:	2f00           	movel %d0,%sp@-
  ef374e:	2f38 0650      	movel 0x650,%sp@-
  ef3752:	4eba 02b8      	jsr %pc@(0xef3a0c)
  ef3756:	4fef 000c      	lea %sp@(12),%sp
  ef375a:	605c           	bras 0xef37b8
  ef375c:	4ab8 067e      	tstl 0x67e
  ef3760:	6604           	bnes 0xef3766
  ef3762:	7018           	moveq #24,%d0
  ef3764:	6002           	bras 0xef3768
  ef3766:	7006           	moveq #6,%d0
  ef3768:	2238 066a      	movel 0x66a,%d1
  ef376c:	b380           	eorl %d1,%d0
  ef376e:	21c0 0666      	movel %d0,0x666
  ef3772:	6044           	bras 0xef37b8
  ef3774:	4ab8 066a      	tstl 0x66a
  ef3778:	673e           	beqs 0xef37b8
  ef377a:	6100 00c8      	bsrw 0xef3844
  ef377e:	6038           	bras 0xef37b8
  ef3780:	0cb8 0000 001e 	cmpil #30,0x66a
  ef3786:	066a 
  ef3788:	672e           	beqs 0xef37b8
  ef378a:	6100 00b8      	bsrw 0xef3844
  ef378e:	6028           	bras 0xef37b8
  ef3790:	21f8 067e 0682 	movel 0x67e,0x682
  ef3796:	6020           	bras 0xef37b8
  ef3798:	2f38 0654      	movel 0x654,%sp@-
  ef379c:	2f38 0650      	movel 0x650,%sp@-
  ef37a0:	4eba f97e      	jsr %pc@(0xef3120)
  ef37a4:	504f           	addqw #8,%sp
  ef37a6:	6010           	bras 0xef37b8
  ef37a8:	7040           	moveq #64,%d0
  ef37aa:	bc00           	cmpb %d0,%d6
  ef37ac:	6c0a           	bges 0xef37b8
  ef37ae:	7001           	moveq #1,%d0
  ef37b0:	21c0 066e      	movel %d0,0x66e
  ef37b4:	6000 faaa      	braw 0xef3260
  ef37b8:	42b8 066e      	clrl 0x66e
  ef37bc:	6000 faa2      	braw 0xef3260
  ef37c0:	7040           	moveq #64,%d0
  ef37c2:	bc00           	cmpb %d0,%d6
  ef37c4:	6d00 fa9a      	bltw 0xef3260
  ef37c8:	42b8 066e      	clrl 0x66e
  ef37cc:	6000 fa92      	braw 0xef3260
  ef37d0:	6156           	bsrs 0xef3828
  ef37d2:	4cee 20c0 ffe8 	moveml %fp@(-24),%d6-%d7/%a5
  ef37d8:	4e5e           	unlk %fp
  ef37da:	4e75           	rts
  ef37dc:	4e56 0000      	linkw %fp,#0
  ef37e0:	4278 0660      	clrw 0x660
  ef37e4:	4aae 0008      	tstl %fp@(8)
  ef37e8:	6c04           	bges 0xef37ee
  ef37ea:	7000           	moveq #0,%d0
  ef37ec:	6012           	bras 0xef3800
  ef37ee:	0cae 0000 0050 	cmpil #80,%fp@(8)
  ef37f4:	0008 
  ef37f6:	6d04           	blts 0xef37fc
  ef37f8:	704f           	moveq #79,%d0
  ef37fa:	6004           	bras 0xef3800
  ef37fc:	202e 0008      	movel %fp@(8),%d0
  ef3800:	21c0 0650      	movel %d0,0x650
  ef3804:	4aae 000c      	tstl %fp@(12)
  ef3808:	6c04           	bges 0xef380e
  ef380a:	7000           	moveq #0,%d0
  ef380c:	6012           	bras 0xef3820
  ef380e:	0cae 0000 0022 	cmpil #34,%fp@(12)
  ef3814:	000c 
  ef3816:	6d04           	blts 0xef381c
  ef3818:	7021           	moveq #33,%d0
  ef381a:	6004           	bras 0xef3820
  ef381c:	202e 000c      	movel %fp@(12),%d0
  ef3820:	21c0 0654      	movel %d0,0x654
  ef3824:	4e5e           	unlk %fp
  ef3826:	4e75           	rts
  ef3828:	4e56 0000      	linkw %fp,#0
  ef382c:	4ab8 0672      	tstl 0x672
  ef3830:	670e           	beqs 0xef3840
  ef3832:	4878 000a      	pea 0xa
  ef3836:	2f38 064c      	movel 0x64c,%sp@-
  ef383a:	4eba f728      	jsr %pc@(0xef2f64)
  ef383e:	504f           	addqw #8,%sp
  ef3840:	4e5e           	unlk %fp
  ef3842:	4e75           	rts
  ef3844:	4e56 0000      	linkw %fp,#0
  ef3848:	4eba f8a8      	jsr %pc@(0xef30f2)
  ef384c:	2038 0666      	movel 0x666,%d0
  ef3850:	4680           	notl %d0
  ef3852:	721e           	moveq #30,%d1
  ef3854:	c081           	andl %d1,%d0
  ef3856:	21c0 0666      	movel %d0,0x666
  ef385a:	2038 066a      	movel 0x66a,%d0
  ef385e:	4680           	notl %d0
  ef3860:	c081           	andl %d1,%d0
  ef3862:	21c0 066a      	movel %d0,0x66a
  ef3866:	4e5e           	unlk %fp
  ef3868:	4e75           	rts
  ef386a:	4e56 fff8      	linkw %fp,#-8
  ef386e:	2d7c 0000 2710 	movel #10000,%fp@(-6)
  ef3874:	fffa 
  ef3876:	4a38 05b4      	tstb 0x5b4
  ef387a:	6628           	bnes 0xef38a4
  ef387c:	4878 0002      	pea 0x2
  ef3880:	4eba cbda      	jsr %pc@(0xef045c)
  ef3884:	584f           	addqw #4,%sp
  ef3886:	4a80           	tstl %d0
  ef3888:	6608           	bnes 0xef3892
  ef388a:	53ae fffa      	subql #1,%fp@(-6)
  ef388e:	66ec           	bnes 0xef387c
  ef3890:	6048           	bras 0xef38da
  ef3892:	53ae fffa      	subql #1,%fp@(-6)
  ef3896:	66fa           	bnes 0xef3892
  ef3898:	4878 0003      	pea 0x3
  ef389c:	4eba cbbe      	jsr %pc@(0xef045c)
  ef38a0:	584f           	addqw #4,%sp
  ef38a2:	6036           	bras 0xef38da
  ef38a4:	41f9 00ee 3800 	lea 0xee3800,%a0
  ef38aa:	3d50 fffe      	movew %a0@,%fp@(-2)
  ef38ae:	08ae 0007 fffe 	bclr #7,%fp@(-2)
  ef38b4:	41ee fffe      	lea %fp@(-2),%a0
  ef38b8:	33d0 00ee 3800 	movew %a0@,0xee3800
  ef38be:	202e fffa      	movel %fp@(-6),%d0
  ef38c2:	53ae fffa      	subql #1,%fp@(-6)
  ef38c6:	4a80           	tstl %d0
  ef38c8:	66f4           	bnes 0xef38be
  ef38ca:	08ee 0007 fffe 	bset #7,%fp@(-2)
  ef38d0:	41ee fffe      	lea %fp@(-2),%a0
  ef38d4:	33d0 00ee 3800 	movew %a0@,0xee3800
  ef38da:	4e5e           	unlk %fp
  ef38dc:	4e75           	rts
  ef38de:	0000 4e56      	orib #86,%d0
  ef38e2:	fff8           	0177770
  ef38e4:	48d7 00c0      	moveml %d6-%d7,%sp@
  ef38e8:	7000           	moveq #0,%d0
  ef38ea:	102e 000b      	moveb %fp@(11),%d0
  ef38ee:	0280 0000 ffff 	andil #65535,%d0
  ef38f4:	d080           	addl %d0,%d0
  ef38f6:	2200           	movel %d0,%d1
  ef38f8:	d281           	addl %d1,%d1
  ef38fa:	d081           	addl %d1,%d0
  ef38fc:	e589           	lsll #2,%d1
  ef38fe:	d081           	addl %d1,%d0
  ef3900:	2e00           	movel %d0,%d7
  ef3902:	7000           	moveq #0,%d0
  ef3904:	102e 000f      	moveb %fp@(15),%d0
  ef3908:	0280 0000 ffff 	andil #65535,%d0
  ef390e:	d080           	addl %d0,%d0
  ef3910:	2200           	movel %d0,%d1
  ef3912:	d281           	addl %d1,%d1
  ef3914:	d081           	addl %d1,%d0
  ef3916:	e589           	lsll #2,%d1
  ef3918:	d081           	addl %d1,%d0
  ef391a:	2c00           	movel %d0,%d6
  ef391c:	2038 0696      	movel 0x696,%d0
  ef3920:	d087           	addl %d7,%d0
  ef3922:	2f00           	movel %d0,%sp@-
  ef3924:	42a7           	clrl %sp@-
  ef3926:	2038 0696      	movel 0x696,%d0
  ef392a:	0680 0000 02ec 	addil #748,%d0
  ef3930:	2f00           	movel %d0,%sp@-
  ef3932:	2f38 068e      	movel 0x68e,%sp@-
  ef3936:	2038 0696      	movel 0x696,%d0
  ef393a:	d086           	addl %d6,%d0
  ef393c:	2f00           	movel %d0,%sp@-
  ef393e:	42a7           	clrl %sp@-
  ef3940:	4eba f4da      	jsr %pc@(0xef2e1c)
  ef3944:	4fef 0018      	lea %sp@(24),%sp
  ef3948:	2f38 0692      	movel 0x692,%sp@-
  ef394c:	2f38 068e      	movel 0x68e,%sp@-
  ef3950:	2038 0696      	movel 0x696,%d0
  ef3954:	0680 0000 02ec 	addil #748,%d0
  ef395a:	2206           	movel %d6,%d1
  ef395c:	9287           	subl %d7,%d1
  ef395e:	9081           	subl %d1,%d0
  ef3960:	2f00           	movel %d0,%sp@-
  ef3962:	42a7           	clrl %sp@-
  ef3964:	4eba f70a      	jsr %pc@(0xef3070)
  ef3968:	4fef 0010      	lea %sp@(16),%sp
  ef396c:	4cee 00c0 fff8 	moveml %fp@(-8),%d6-%d7
  ef3972:	4e5e           	unlk %fp
  ef3974:	4e75           	rts
  ef3976:	4e56 fff8      	linkw %fp,#-8
  ef397a:	48d7 00c0      	moveml %d6-%d7,%sp@
  ef397e:	7000           	moveq #0,%d0
  ef3980:	102e 000b      	moveb %fp@(11),%d0
  ef3984:	0280 0000 ffff 	andil #65535,%d0
  ef398a:	d080           	addl %d0,%d0
  ef398c:	2200           	movel %d0,%d1
  ef398e:	d281           	addl %d1,%d1
  ef3990:	d081           	addl %d1,%d0
  ef3992:	e589           	lsll #2,%d1
  ef3994:	d081           	addl %d1,%d0
  ef3996:	2e00           	movel %d0,%d7
  ef3998:	7000           	moveq #0,%d0
  ef399a:	102e 000f      	moveb %fp@(15),%d0
  ef399e:	0280 0000 ffff 	andil #65535,%d0
  ef39a4:	d080           	addl %d0,%d0
  ef39a6:	2200           	movel %d0,%d1
  ef39a8:	d281           	addl %d1,%d1
  ef39aa:	d081           	addl %d1,%d0
  ef39ac:	e589           	lsll #2,%d1
  ef39ae:	d081           	addl %d1,%d0
  ef39b0:	2c00           	movel %d0,%d6
  ef39b2:	2038 0696      	movel 0x696,%d0
  ef39b6:	d086           	addl %d6,%d0
  ef39b8:	2f00           	movel %d0,%sp@-
  ef39ba:	42a7           	clrl %sp@-
  ef39bc:	2038 0696      	movel 0x696,%d0
  ef39c0:	0680 0000 02ec 	addil #748,%d0
  ef39c6:	2206           	movel %d6,%d1
  ef39c8:	9287           	subl %d7,%d1
  ef39ca:	9081           	subl %d1,%d0
  ef39cc:	2f00           	movel %d0,%sp@-
  ef39ce:	2f38 068e      	movel 0x68e,%sp@-
  ef39d2:	2038 0696      	movel 0x696,%d0
  ef39d6:	d087           	addl %d7,%d0
  ef39d8:	2f00           	movel %d0,%sp@-
  ef39da:	42a7           	clrl %sp@-
  ef39dc:	4eba f43e      	jsr %pc@(0xef2e1c)
  ef39e0:	4fef 0018      	lea %sp@(24),%sp
  ef39e4:	2038 0696      	movel 0x696,%d0
  ef39e8:	d086           	addl %d6,%d0
  ef39ea:	2f00           	movel %d0,%sp@-
  ef39ec:	2f38 068e      	movel 0x68e,%sp@-
  ef39f0:	2038 0696      	movel 0x696,%d0
  ef39f4:	d087           	addl %d7,%d0
  ef39f6:	2f00           	movel %d0,%sp@-
  ef39f8:	42a7           	clrl %sp@-
  ef39fa:	4eba f674      	jsr %pc@(0xef3070)
  ef39fe:	4fef 0010      	lea %sp@(16),%sp
  ef3a02:	4cee 00c0 fff8 	moveml %fp@(-8),%d6-%d7
  ef3a08:	4e5e           	unlk %fp
  ef3a0a:	4e75           	rts
  ef3a0c:	4e56 ffc4      	linkw %fp,#-60
  ef3a10:	48d7 00c0      	moveml %d6-%d7,%sp@
  ef3a14:	2d78 0650 fffc 	movel 0x650,%fp@(-4)
  ef3a1a:	2d78 0654 fff8 	movel 0x654,%fp@(-8)
  ef3a20:	0c2e 0050 000f 	cmpib #80,%fp@(15)
  ef3a26:	6400 00d0      	bccw 0xef3af8
  ef3a2a:	7000           	moveq #0,%d0
  ef3a2c:	102e 0013      	moveb %fp@(19),%d0
  ef3a30:	0280 0000 ffff 	andil #65535,%d0
  ef3a36:	d080           	addl %d0,%d0
  ef3a38:	2200           	movel %d0,%d1
  ef3a3a:	d281           	addl %d1,%d1
  ef3a3c:	d081           	addl %d1,%d0
  ef3a3e:	e589           	lsll #2,%d1
  ef3a40:	d081           	addl %d1,%d0
  ef3a42:	d0b8 0696      	addl 0x696,%d0
  ef3a46:	21c0 0614      	movel %d0,0x614
  ef3a4a:	7000           	moveq #0,%d0
  ef3a4c:	102e 000b      	moveb %fp@(11),%d0
  ef3a50:	0280 0000 ffff 	andil #65535,%d0
  ef3a56:	e588           	lsll #2,%d0
  ef3a58:	2200           	movel %d0,%d1
  ef3a5a:	d281           	addl %d1,%d1
  ef3a5c:	d081           	addl %d1,%d0
  ef3a5e:	d0b8 069a      	addl 0x69a,%d0
  ef3a62:	2e00           	movel %d0,%d7
  ef3a64:	7000           	moveq #0,%d0
  ef3a66:	102e 000f      	moveb %fp@(15),%d0
  ef3a6a:	0280 0000 ffff 	andil #65535,%d0
  ef3a70:	e588           	lsll #2,%d0
  ef3a72:	2200           	movel %d0,%d1
  ef3a74:	d281           	addl %d1,%d1
  ef3a76:	d081           	addl %d1,%d0
  ef3a78:	d0b8 069a      	addl 0x69a,%d0
  ef3a7c:	2c00           	movel %d0,%d6
  ef3a7e:	41ee ffcc      	lea %fp@(-52),%a0
  ef3a82:	21c8 0630      	movel %a0,0x630
  ef3a86:	2038 069a      	movel 0x69a,%d0
  ef3a8a:	0680 0000 03c0 	addil #960,%d0
  ef3a90:	bc80           	cmpl %d0,%d6
  ef3a92:	644c           	bccs 0xef3ae0
  ef3a94:	21c6 0610      	movel %d6,0x610
  ef3a98:	42a7           	clrl %sp@-
  ef3a9a:	4878 0640      	pea 0x640
  ef3a9e:	42a7           	clrl %sp@-
  ef3aa0:	2f38 0614      	movel 0x614,%sp@-
  ef3aa4:	2f38 0610      	movel 0x610,%sp@-
  ef3aa8:	2f38 060c      	movel 0x60c,%sp@-
  ef3aac:	4eba 01d6      	jsr %pc@(0xef3c84)
  ef3ab0:	4fef 0018      	lea %sp@(24),%sp
  ef3ab4:	21c7 0610      	movel %d7,0x610
  ef3ab8:	4878 0001      	pea 0x1
  ef3abc:	4878 0640      	pea 0x640
  ef3ac0:	4878 0018      	pea 0x18
  ef3ac4:	2f38 0614      	movel 0x614,%sp@-
  ef3ac8:	2f38 0610      	movel 0x610,%sp@-
  ef3acc:	2f38 060c      	movel 0x60c,%sp@-
  ef3ad0:	4eba 2d8a      	jsr %pc@(0xef685c)
  ef3ad4:	4fef 0018      	lea %sp@(24),%sp
  ef3ad8:	720c           	moveq #12,%d1
  ef3ada:	de81           	addl %d1,%d7
  ef3adc:	dc81           	addl %d1,%d6
  ef3ade:	60a6           	bras 0xef3a86
  ef3ae0:	7000           	moveq #0,%d0
  ef3ae2:	102e 000f      	moveb %fp@(15),%d0
  ef3ae6:	7200           	moveq #0,%d1
  ef3ae8:	122e 000b      	moveb %fp@(11),%d1
  ef3aec:	9081           	subl %d1,%d0
  ef3aee:	7250           	moveq #80,%d1
  ef3af0:	9280           	subl %d0,%d1
  ef3af2:	21c1 0650      	movel %d1,0x650
  ef3af6:	600a           	bras 0xef3b02
  ef3af8:	7000           	moveq #0,%d0
  ef3afa:	102e 000b      	moveb %fp@(11),%d0
  ef3afe:	21c0 0650      	movel %d0,0x650
  ef3b02:	7000           	moveq #0,%d0
  ef3b04:	102e 0013      	moveb %fp@(19),%d0
  ef3b08:	21c0 0654      	movel %d0,0x654
  ef3b0c:	4278 0660      	clrw 0x660
  ef3b10:	2f38 066a      	movel 0x66a,%sp@-
  ef3b14:	2f38 064c      	movel 0x64c,%sp@-
  ef3b18:	4eba f44a      	jsr %pc@(0xef2f64)
  ef3b1c:	504f           	addqw #8,%sp
  ef3b1e:	2038 0614      	movel 0x614,%d0
  ef3b22:	7216           	moveq #22,%d1
  ef3b24:	d081           	addl %d1,%d0
  ef3b26:	2f00           	movel %d0,%sp@-
  ef3b28:	2f38 068e      	movel 0x68e,%sp@-
  ef3b2c:	2f38 0614      	movel 0x614,%sp@-
  ef3b30:	2038 0610      	movel 0x610,%d0
  ef3b34:	720c           	moveq #12,%d1
  ef3b36:	d081           	addl %d1,%d0
  ef3b38:	72f0           	moveq #-16,%d1
  ef3b3a:	c081           	andl %d1,%d0
  ef3b3c:	2f00           	movel %d0,%sp@-
  ef3b3e:	4eba f530      	jsr %pc@(0xef3070)
  ef3b42:	4fef 0010      	lea %sp@(16),%sp
  ef3b46:	2f2e fff8      	movel %fp@(-8),%sp@-
  ef3b4a:	2f2e fffc      	movel %fp@(-4),%sp@-
  ef3b4e:	4eba fc8c      	jsr %pc@(0xef37dc)
  ef3b52:	504f           	addqw #8,%sp
  ef3b54:	4cee 00c0 ffc4 	moveml %fp@(-60),%d6-%d7
  ef3b5a:	4e5e           	unlk %fp
  ef3b5c:	4e75           	rts
  ef3b5e:	4e56 ffc0      	linkw %fp,#-64
  ef3b62:	48d7 00e0      	moveml %d5-%d7,%sp@
  ef3b66:	2d78 0650 fffc 	movel 0x650,%fp@(-4)
  ef3b6c:	2d78 0654 fff8 	movel 0x654,%fp@(-8)
  ef3b72:	0c2e 0050 000f 	cmpib #80,%fp@(15)
  ef3b78:	6306           	blss 0xef3b80
  ef3b7a:	7e50           	moveq #80,%d7
  ef3b7c:	1d47 000f      	moveb %d7,%fp@(15)
  ef3b80:	7000           	moveq #0,%d0
  ef3b82:	102e 0013      	moveb %fp@(19),%d0
  ef3b86:	0280 0000 ffff 	andil #65535,%d0
  ef3b8c:	d080           	addl %d0,%d0
  ef3b8e:	2200           	movel %d0,%d1
  ef3b90:	d281           	addl %d1,%d1
  ef3b92:	d081           	addl %d1,%d0
  ef3b94:	e589           	lsll #2,%d1
  ef3b96:	d081           	addl %d1,%d0
  ef3b98:	d0b8 0696      	addl 0x696,%d0
  ef3b9c:	21c0 0614      	movel %d0,0x614
  ef3ba0:	2038 069a      	movel 0x69a,%d0
  ef3ba4:	0680 0000 03b4 	addil #948,%d0
  ef3baa:	2c00           	movel %d0,%d6
  ef3bac:	7000           	moveq #0,%d0
  ef3bae:	102e 000f      	moveb %fp@(15),%d0
  ef3bb2:	7200           	moveq #0,%d1
  ef3bb4:	122e 000b      	moveb %fp@(11),%d1
  ef3bb8:	9081           	subl %d1,%d0
  ef3bba:	e588           	lsll #2,%d0
  ef3bbc:	2200           	movel %d0,%d1
  ef3bbe:	d281           	addl %d1,%d1
  ef3bc0:	d081           	addl %d1,%d0
  ef3bc2:	2206           	movel %d6,%d1
  ef3bc4:	9280           	subl %d0,%d1
  ef3bc6:	2e01           	movel %d1,%d7
  ef3bc8:	41ee ffcc      	lea %fp@(-52),%a0
  ef3bcc:	21c8 0630      	movel %a0,0x630
  ef3bd0:	7000           	moveq #0,%d0
  ef3bd2:	102e 000f      	moveb %fp@(15),%d0
  ef3bd6:	7250           	moveq #80,%d1
  ef3bd8:	9240           	subw %d0,%d1
  ef3bda:	3a01           	movew %d1,%d5
  ef3bdc:	3005           	movew %d5,%d0
  ef3bde:	5345           	subqw #1,%d5
  ef3be0:	4a40           	tstw %d0
  ef3be2:	674c           	beqs 0xef3c30
  ef3be4:	21c7 0610      	movel %d7,0x610
  ef3be8:	42a7           	clrl %sp@-
  ef3bea:	4878 0640      	pea 0x640
  ef3bee:	42a7           	clrl %sp@-
  ef3bf0:	2f38 0614      	movel 0x614,%sp@-
  ef3bf4:	2f38 0610      	movel 0x610,%sp@-
  ef3bf8:	2f38 060c      	movel 0x60c,%sp@-
  ef3bfc:	4eba 0086      	jsr %pc@(0xef3c84)
  ef3c00:	4fef 0018      	lea %sp@(24),%sp
  ef3c04:	21c6 0610      	movel %d6,0x610
  ef3c08:	4878 0001      	pea 0x1
  ef3c0c:	4878 0640      	pea 0x640
  ef3c10:	4878 0018      	pea 0x18
  ef3c14:	2f38 0614      	movel 0x614,%sp@-
  ef3c18:	2f38 0610      	movel 0x610,%sp@-
  ef3c1c:	2f38 060c      	movel 0x60c,%sp@-
  ef3c20:	4eba 2c3a      	jsr %pc@(0xef685c)
  ef3c24:	4fef 0018      	lea %sp@(24),%sp
  ef3c28:	720c           	moveq #12,%d1
  ef3c2a:	9e81           	subl %d1,%d7
  ef3c2c:	9c81           	subl %d1,%d6
  ef3c2e:	60ac           	bras 0xef3bdc
  ef3c30:	7000           	moveq #0,%d0
  ef3c32:	102e 000b      	moveb %fp@(11),%d0
  ef3c36:	21c0 0650      	movel %d0,0x650
  ef3c3a:	7000           	moveq #0,%d0
  ef3c3c:	102e 0013      	moveb %fp@(19),%d0
  ef3c40:	21c0 0654      	movel %d0,0x654
  ef3c44:	4278 0660      	clrw 0x660
  ef3c48:	102e 000b      	moveb %fp@(11),%d0
  ef3c4c:	b02e 000f      	cmpb %fp@(15),%d0
  ef3c50:	641a           	bccs 0xef3c6c
  ef3c52:	2f38 066a      	movel 0x66a,%sp@-
  ef3c56:	2f38 064c      	movel 0x64c,%sp@-
  ef3c5a:	4eba f308      	jsr %pc@(0xef2f64)
  ef3c5e:	504f           	addqw #8,%sp
  ef3c60:	522e 000b      	addqb #1,%fp@(11)
  ef3c64:	720c           	moveq #12,%d1
  ef3c66:	d3b8 0610      	addl %d1,0x610
  ef3c6a:	60dc           	bras 0xef3c48
  ef3c6c:	2f2e fff8      	movel %fp@(-8),%sp@-
  ef3c70:	2f2e fffc      	movel %fp@(-4),%sp@-
  ef3c74:	4eba fb66      	jsr %pc@(0xef37dc)
  ef3c78:	504f           	addqw #8,%sp
  ef3c7a:	4cee 00e0 ffc0 	moveml %fp@(-64),%d5-%d7
  ef3c80:	4e5e           	unlk %fp
  ef3c82:	4e75           	rts
  ef3c84:	4e56 ffe4      	linkw %fp,#-28
  ef3c88:	48d7 38f0      	moveml %d4-%d7/%a3-%a5,%sp@
  ef3c8c:	206e 0008      	moveal %fp@(8),%a0
  ef3c90:	2668 0010      	moveal %a0@(16),%a3
  ef3c94:	2a13           	movel %a3@,%d5
  ef3c96:	302b 0002      	movew %a3@(2),%d0
  ef3c9a:	222b 000c      	movel %a3@(12),%d1
  ef3c9e:	d2ae 0010      	addl %fp@(16),%d1
  ef3ca2:	c1c1           	mulsw %d1,%d0
  ef3ca4:	d0ab 0004      	addl %a3@(4),%d0
  ef3ca8:	222b 0008      	movel %a3@(8),%d1
  ef3cac:	d2ae 000c      	addl %fp@(12),%d1
  ef3cb0:	e681           	asrl #3,%d1
  ef3cb2:	d081           	addl %d1,%d0
  ef3cb4:	7efe           	moveq #-2,%d7
  ef3cb6:	c087           	andl %d7,%d0
  ef3cb8:	2840           	moveal %d0,%a4
  ef3cba:	202b 0008      	movel %a3@(8),%d0
  ef3cbe:	d0ae 000c      	addl %fp@(12),%d0
  ef3cc2:	7e0f           	moveq #15,%d7
  ef3cc4:	c087           	andl %d7,%d0
  ef3cc6:	2800           	movel %d0,%d4
  ef3cc8:	206e 0018      	moveal %fp@(24),%a0
  ef3ccc:	2650           	moveal %a0@,%a3
  ef3cce:	2e2b 0004      	movel %a3@(4),%d7
  ef3cd2:	2c2b 0008      	movel %a3@(8),%d6
  ef3cd6:	266b 0010      	moveal %a3@(16),%a3
  ef3cda:	2a6b 0004      	moveal %a3@(4),%a5
  ef3cde:	2004           	movel %d4,%d0
  ef3ce0:	d087           	addl %d7,%d0
  ef3ce2:	7210           	moveq #16,%d1
  ef3ce4:	b081           	cmpl %d1,%d0
  ef3ce6:	6e12           	bgts 0xef3cfa
  ef3ce8:	600a           	bras 0xef3cf4
  ef3cea:	7000           	moveq #0,%d0
  ef3cec:	3014           	movew %a4@,%d0
  ef3cee:	e9a8           	lsll %d4,%d0
  ef3cf0:	3ac0           	movew %d0,%a5@+
  ef3cf2:	d9c5           	addal %d5,%a4
  ef3cf4:	51ce fff4      	dbf %d6,0xef3cea
  ef3cf8:	6014           	bras 0xef3d0e
  ef3cfa:	7010           	moveq #16,%d0
  ef3cfc:	9084           	subl %d4,%d0
  ef3cfe:	2800           	movel %d0,%d4
  ef3d00:	6008           	bras 0xef3d0a
  ef3d02:	2014           	movel %a4@,%d0
  ef3d04:	e8a8           	lsrl %d4,%d0
  ef3d06:	3ac0           	movew %d0,%a5@+
  ef3d08:	d9c5           	addal %d5,%a4
  ef3d0a:	51ce fff6      	dbf %d6,0xef3d02
  ef3d0e:	4cee 38f0 ffe4 	moveml %fp@(-28),%d4-%d7/%a3-%a5
  ef3d14:	4e5e           	unlk %fp
  ef3d16:	4e75           	rts
  ef3d18:	4e56 fff4      	linkw %fp,#-12
  ef3d1c:	48d7 3080      	moveml %d7/%a4-%a5,%sp@
  ef3d20:	302e 000a      	movew %fp@(10),%d0
  ef3d24:	0280 0000 ffff 	andil #65535,%d0
  ef3d2a:	d080           	addl %d0,%d0
  ef3d2c:	2200           	movel %d0,%d1
  ef3d2e:	d281           	addl %d1,%d1
  ef3d30:	d081           	addl %d1,%d0
  ef3d32:	e589           	lsll #2,%d1
  ef3d34:	d081           	addl %d1,%d0
  ef3d36:	d0b8 0696      	addl 0x696,%d0
  ef3d3a:	2238 068e      	movel 0x68e,%d1
  ef3d3e:	e689           	lsrl #3,%d1
  ef3d40:	c0c1           	muluw %d1,%d0
  ef3d42:	d0b8 05fc      	addl 0x5fc,%d0
  ef3d46:	2238 069a      	movel 0x69a,%d1
  ef3d4a:	e889           	lsrl #4,%d1
  ef3d4c:	e389           	lsll #1,%d1
  ef3d4e:	d081           	addl %d1,%d0
  ef3d50:	2a40           	moveal %d0,%a5
  ef3d52:	287c 00ef 7b40 	moveal #15694656,%a4
  ef3d58:	7e40           	moveq #64,%d7
  ef3d5a:	3007           	movew %d7,%d0
  ef3d5c:	5347           	subqw #1,%d7
  ef3d5e:	4a40           	tstw %d0
  ef3d60:	672a           	beqs 0xef3d8c
  ef3d62:	0cb8 0000 0018 	cmpil #24,0x666
  ef3d68:	0666 
  ef3d6a:	6606           	bnes 0xef3d72
  ef3d6c:	2adc           	movel %a4@+,%a5@+
  ef3d6e:	2adc           	movel %a4@+,%a5@+
  ef3d70:	600c           	bras 0xef3d7e
  ef3d72:	201c           	movel %a4@+,%d0
  ef3d74:	4680           	notl %d0
  ef3d76:	2ac0           	movel %d0,%a5@+
  ef3d78:	201c           	movel %a4@+,%d0
  ef3d7a:	4680           	notl %d0
  ef3d7c:	2ac0           	movel %d0,%a5@+
  ef3d7e:	2038 068e      	movel 0x68e,%d0
  ef3d82:	ea88           	lsrl #5,%d0
  ef3d84:	5580           	subql #2,%d0
  ef3d86:	e580           	asll #2,%d0
  ef3d88:	dbc0           	addal %d0,%a5
  ef3d8a:	60ce           	bras 0xef3d5a
  ef3d8c:	4cee 3080 fff4 	moveml %fp@(-12),%d7/%a4-%a5
  ef3d92:	4e5e           	unlk %fp
  ef3d94:	4e75           	rts
  ef3d96:	0000 4e56      	orib #86,%d0
  ef3d9a:	0000 2039      	orib #57,%d0
  ef3d9e:	00ef           	0357
  ef3da0:	7d40           	mvsw %d0,%d6
  ef3da2:	0680 00f0 0000 	addil #15728640,%d0
  ef3da8:	2f00           	movel %d0,%sp@-
  ef3daa:	4eba ef28      	jsr %pc@(0xef2cd4)
  ef3dae:	584f           	addqw #4,%sp
  ef3db0:	72ff           	moveq #-1,%d1
  ef3db2:	b081           	cmpl %d1,%d0
  ef3db4:	6704           	beqs 0xef3dba
  ef3db6:	7000           	moveq #0,%d0
  ef3db8:	6002           	bras 0xef3dbc
  ef3dba:	70ff           	moveq #-1,%d0
  ef3dbc:	4e5e           	unlk %fp
  ef3dbe:	4e75           	rts
  ef3dc0:	4e56 0000      	linkw %fp,#0
  ef3dc4:	206e 0008      	moveal %fp@(8),%a0
  ef3dc8:	217c 00ef 7d4c 	movel #15695180,%a0@(42)
  ef3dce:	002a 
  ef3dd0:	206e 0008      	moveal %fp@(8),%a0
  ef3dd4:	0ca8 0000 0002 	cmpil #2,%a0@(10)
  ef3dda:	000a 
  ef3ddc:	6c14           	bges 0xef3df2
  ef3dde:	2248           	moveal %a0,%a1
  ef3de0:	2029 000a      	movel %a1@(10),%d0
  ef3de4:	e580           	asll #2,%d0
  ef3de6:	2240           	moveal %d0,%a1
  ef3de8:	d3fc 00ef 7d40 	addal #15695168,%a1
  ef3dee:	2011           	movel %a1@,%d0
  ef3df0:	600a           	bras 0xef3dfc
  ef3df2:	206e 0008      	moveal %fp@(8),%a0
  ef3df6:	2248           	moveal %a0,%a1
  ef3df8:	2029 000a      	movel %a1@(10),%d0
  ef3dfc:	0680 00f0 0000 	addil #15728640,%d0
  ef3e02:	2140 0006      	movel %d0,%a0@(6)
  ef3e06:	4eba 10e8      	jsr %pc@(0xef4ef0)
  ef3e0a:	206e 0008      	moveal %fp@(8),%a0
  ef3e0e:	2f28 0006      	movel %a0@(6),%sp@-
  ef3e12:	6110           	bsrs 0xef3e24
  ef3e14:	584f           	addqw #4,%sp
  ef3e16:	2f2e 0008      	movel %fp@(8),%sp@-
  ef3e1a:	4eba 1114      	jsr %pc@(0xef4f30)
  ef3e1e:	584f           	addqw #4,%sp
  ef3e20:	4e5e           	unlk %fp
  ef3e22:	4e75           	rts
  ef3e24:	4e56 fff8      	linkw %fp,#-8
  ef3e28:	48d7 2080      	moveml %d7/%a5,%sp@
  ef3e2c:	2a6e 0008      	moveal %fp@(8),%a5
  ef3e30:	3abc 0100      	movew #256,%a5@
  ef3e34:	7e0a           	moveq #10,%d7
  ef3e36:	5387           	subql #1,%d7
  ef3e38:	6efc           	bgts 0xef3e36
  ef3e3a:	486d 0600      	pea %a5@(1536)
  ef3e3e:	486d 0400      	pea %a5@(1024)
  ef3e42:	4eba 152a      	jsr %pc@(0xef536e)
  ef3e46:	504f           	addqw #8,%sp
  ef3e48:	3015           	movew %a5@,%d0
  ef3e4a:	0280 0000 00ff 	andil #255,%d0
  ef3e50:	0040 0800      	oriw #2048,%d0
  ef3e54:	3a80           	movew %d0,%a5@
  ef3e56:	3015           	movew %a5@,%d0
  ef3e58:	0280 0000 00ff 	andil #255,%d0
  ef3e5e:	0040 c007      	oriw #-16377,%d0
  ef3e62:	3a80           	movew %d0,%a5@
  ef3e64:	4cee 2080 fff8 	moveml %fp@(-8),%d7/%a5
  ef3e6a:	4e5e           	unlk %fp
  ef3e6c:	4e75           	rts
  ef3e6e:	4e56 ffec      	linkw %fp,#-20
  ef3e72:	2e8d           	movel %a5,%sp@
  ef3e74:	2a6e 0008      	moveal %fp@(8),%a5
  ef3e78:	2079 00ef 009c 	moveal 0xef009c,%a0
  ef3e7e:	2010           	movel %a0@,%d0
  ef3e80:	0680 0000 01f4 	addil #500,%d0
  ef3e86:	2d40 fff8      	movel %d0,%fp@(-8)
  ef3e8a:	72ff           	moveq #-1,%d1
  ef3e8c:	3d41 fff6      	movew %d1,%fp@(-10)
  ef3e90:	41ed 1000      	lea %a5@(4096),%a0
  ef3e94:	202e 0010      	movel %fp@(16),%d0
  ef3e98:	4480           	negl %d0
  ef3e9a:	d1c0           	addal %d0,%a0
  ef3e9c:	2d48 fffc      	movel %a0,%fp@(-4)
  ef3ea0:	2f2e 0010      	movel %fp@(16),%sp@-
  ef3ea4:	2f08           	movel %a0,%sp@-
  ef3ea6:	2f2e 000c      	movel %fp@(12),%sp@-
  ef3eaa:	4eba ed02      	jsr %pc@(0xef2bae)
  ef3eae:	4fef 000c      	lea %sp@(12),%sp
  ef3eb2:	41ed 0800      	lea %a5@(2048),%a0
  ef3eb6:	202e fffc      	movel %fp@(-4),%d0
  ef3eba:	9088           	subl %a0,%d0
  ef3ebc:	3b40 0800      	movew %d0,%a5@(2048)
  ef3ec0:	3015           	movew %a5@,%d0
  ef3ec2:	0280 0000 00ff 	andil #255,%d0
  ef3ec8:	0040 2000      	oriw #8192,%d0
  ef3ecc:	3a80           	movew %d0,%a5@
  ef3ece:	2079 00ef 009c 	moveal 0xef009c,%a0
  ef3ed4:	2010           	movel %a0@,%d0
  ef3ed6:	b0ae fff8      	cmpl %fp@(-8),%d0
  ef3eda:	6e12           	bgts 0xef3eee
  ef3edc:	3015           	movew %a5@,%d0
  ef3ede:	0800 000c      	btst #12,%d0
  ef3ee2:	6752           	beqs 0xef3f36
  ef3ee4:	e1ee fff6      	aslw %fp@(-10)
  ef3ee8:	4a6e fff6      	tstw %fp@(-10)
  ef3eec:	6608           	bnes 0xef3ef6
  ef3eee:	6100 ff34      	bsrw 0xef3e24
  ef3ef2:	70ff           	moveq #-1,%d0
  ef3ef4:	604a           	bras 0xef3f40
  ef3ef6:	2079 00ef 009c 	moveal 0xef009c,%a0
  ef3efc:	2010           	movel %a0@,%d0
  ef3efe:	322e fff6      	movew %fp@(-10),%d1
  ef3f02:	4641           	notw %d1
  ef3f04:	48c1           	extl %d1
  ef3f06:	c081           	andl %d1,%d0
  ef3f08:	4480           	negl %d0
  ef3f0a:	3d40 fff2      	movew %d0,%fp@(-14)
  ef3f0e:	6612           	bnes 0xef3f22
  ef3f10:	302e fff6      	movew %fp@(-10),%d0
  ef3f14:	4640           	notw %d0
  ef3f16:	0280 0000 5555 	andil #21845,%d0
  ef3f1c:	4480           	negl %d0
  ef3f1e:	3d40 fff2      	movew %d0,%fp@(-14)
  ef3f22:	3b6e fff2 0002 	movew %fp@(-14),%a5@(2)
  ef3f28:	3015           	movew %a5@,%d0
  ef3f2a:	0280 0000 00ff 	andil #255,%d0
  ef3f30:	0040 1000      	oriw #4096,%d0
  ef3f34:	3a80           	movew %d0,%a5@
  ef3f36:	3015           	movew %a5@,%d0
  ef3f38:	0800 000d      	btst #13,%d0
  ef3f3c:	6690           	bnes 0xef3ece
  ef3f3e:	7000           	moveq #0,%d0
  ef3f40:	2a6e ffec      	moveal %fp@(-20),%a5
  ef3f44:	4e5e           	unlk %fp
  ef3f46:	4e75           	rts
  ef3f48:	4e56 fff0      	linkw %fp,#-16
  ef3f4c:	2e8d           	movel %a5,%sp@
  ef3f4e:	2a6e 0008      	moveal %fp@(8),%a5
  ef3f52:	42ae fff6      	clrl %fp@(-10)
  ef3f56:	3015           	movew %a5@,%d0
  ef3f58:	0800 000e      	btst #14,%d0
  ef3f5c:	6612           	bnes 0xef3f70
  ef3f5e:	41ed 1000      	lea %a5@(4096),%a0
  ef3f62:	2d48 fffa      	movel %a0,%fp@(-6)
  ef3f66:	2d7c 0000 4000 	movel #16384,%fp@(-10)
  ef3f6c:	fff6 
  ef3f6e:	601e           	bras 0xef3f8e
  ef3f70:	3015           	movew %a5@,%d0
  ef3f72:	0800 000f      	btst #15,%d0
  ef3f76:	6612           	bnes 0xef3f8a
  ef3f78:	41ed 1800      	lea %a5@(6144),%a0
  ef3f7c:	2d48 fffa      	movel %a0,%fp@(-6)
  ef3f80:	2d7c 0000 8000 	movel #32768,%fp@(-10)
  ef3f86:	fff6 
  ef3f88:	6004           	bras 0xef3f8e
  ef3f8a:	7000           	moveq #0,%d0
  ef3f8c:	603c           	bras 0xef3fca
  ef3f8e:	206e fffa      	moveal %fp@(-6),%a0
  ef3f92:	3010           	movew %a0@,%d0
  ef3f94:	0280 0000 07ff 	andil #2047,%d0
  ef3f9a:	3d40 fffe      	movew %d0,%fp@(-2)
  ef3f9e:	54ae fffa      	addql #2,%fp@(-6)
  ef3fa2:	48c0           	extl %d0
  ef3fa4:	2f00           	movel %d0,%sp@-
  ef3fa6:	2f2e 000c      	movel %fp@(12),%sp@-
  ef3faa:	2f2e fffa      	movel %fp@(-6),%sp@-
  ef3fae:	4eba ebfe      	jsr %pc@(0xef2bae)
  ef3fb2:	4fef 000c      	lea %sp@(12),%sp
  ef3fb6:	3015           	movew %a5@,%d0
  ef3fb8:	0280 0000 00ff 	andil #255,%d0
  ef3fbe:	80ae fff6      	orl %fp@(-10),%d0
  ef3fc2:	3a80           	movew %d0,%a5@
  ef3fc4:	302e fffe      	movew %fp@(-2),%d0
  ef3fc8:	48c0           	extl %d0
  ef3fca:	2a6e fff0      	moveal %fp@(-16),%a5
  ef3fce:	4e5e           	unlk %fp
  ef3fd0:	4e75           	rts
  ef3fd2:	0000 4e56      	orib #86,%d0
  ef3fd6:	fff8           	0177770
  ef3fd8:	48d7 3000      	moveml %a4-%a5,%sp@
  ef3fdc:	2039 00ef 7d58 	movel 0xef7d58,%d0
  ef3fe2:	0680 00f0 0000 	addil #15728640,%d0
  ef3fe8:	2a40           	moveal %d0,%a5
  ef3fea:	284d           	moveal %a5,%a4
  ef3fec:	42a7           	clrl %sp@-
  ef3fee:	4854           	pea %a4@
  ef3ff0:	4eba ed2e      	jsr %pc@(0xef2d20)
  ef3ff4:	504f           	addqw #8,%sp
  ef3ff6:	4a80           	tstl %d0
  ef3ff8:	6624           	bnes 0xef401e
  ef3ffa:	49ed 0800      	lea %a5@(2048),%a4
  ef3ffe:	4878 6789      	pea 0x6789
  ef4002:	4854           	pea %a4@
  ef4004:	4eba ed1a      	jsr %pc@(0xef2d20)
  ef4008:	504f           	addqw #8,%sp
  ef400a:	4a80           	tstl %d0
  ef400c:	6610           	bnes 0xef401e
  ef400e:	4854           	pea %a4@
  ef4010:	4eba ecc2      	jsr %pc@(0xef2cd4)
  ef4014:	584f           	addqw #4,%sp
  ef4016:	0c80 0000 6789 	cmpil #26505,%d0
  ef401c:	6604           	bnes 0xef4022
  ef401e:	70ff           	moveq #-1,%d0
  ef4020:	6002           	bras 0xef4024
  ef4022:	7000           	moveq #0,%d0
  ef4024:	4cee 3000 fff8 	moveml %fp@(-8),%a4-%a5
  ef402a:	4e5e           	unlk %fp
  ef402c:	4e75           	rts
  ef402e:	4e56 fffc      	linkw %fp,#-4
  ef4032:	2e87           	movel %d7,%sp@
  ef4034:	206e 0008      	moveal %fp@(8),%a0
  ef4038:	217c 00ef 7d64 	movel #15695204,%a0@(42)
  ef403e:	002a 
  ef4040:	4eba 0eae      	jsr %pc@(0xef4ef0)
  ef4044:	2f2e 0008      	movel %fp@(8),%sp@-
  ef4048:	612c           	bsrs 0xef4076
  ef404a:	584f           	addqw #4,%sp
  ef404c:	4a80           	tstl %d0
  ef404e:	660e           	bnes 0xef405e
  ef4050:	2f2e 0008      	movel %fp@(8),%sp@-
  ef4054:	4eba 0eda      	jsr %pc@(0xef4f30)
  ef4058:	584f           	addqw #4,%sp
  ef405a:	2e00           	movel %d0,%d7
  ef405c:	6c0e           	bges 0xef406c
  ef405e:	2f2e 0008      	movel %fp@(8),%sp@-
  ef4062:	6100 06b8      	bsrw 0xef471c
  ef4066:	584f           	addqw #4,%sp
  ef4068:	70ff           	moveq #-1,%d0
  ef406a:	6002           	bras 0xef406e
  ef406c:	2007           	movel %d7,%d0
  ef406e:	2e2e fffc      	movel %fp@(-4),%d7
  ef4072:	4e5e           	unlk %fp
  ef4074:	4e75           	rts
  ef4076:	4e56 ffe8      	linkw %fp,#-24
  ef407a:	48d7 3000      	moveml %a4-%a5,%sp@
  ef407e:	206e 0008      	moveal %fp@(8),%a0
  ef4082:	0ca8 0000 0002 	cmpil #2,%a0@(10)
  ef4088:	000a 
  ef408a:	6c12           	bges 0xef409e
  ef408c:	2028 000a      	movel %a0@(10),%d0
  ef4090:	e580           	asll #2,%d0
  ef4092:	2040           	moveal %d0,%a0
  ef4094:	d1fc 00ef 7d58 	addal #15695192,%a0
  ef409a:	2010           	movel %a0@,%d0
  ef409c:	6008           	bras 0xef40a6
  ef409e:	206e 0008      	moveal %fp@(8),%a0
  ef40a2:	2028 000a      	movel %a0@(10),%d0
  ef40a6:	0680 00f0 0000 	addil #15728640,%d0
  ef40ac:	2840           	moveal %d0,%a4
  ef40ae:	08ec 0000 0844 	bset #0,%a4@(2116)
  ef40b4:	08ac 0006 0840 	bclr #6,%a4@(2112)
  ef40ba:	08ac 0004 0840 	bclr #4,%a4@(2112)
  ef40c0:	08ac 0003 0840 	bclr #3,%a4@(2112)
  ef40c6:	7000           	moveq #0,%d0
  ef40c8:	102c 0841      	moveb %a4@(2113),%d0
  ef40cc:	720f           	moveq #15,%d1
  ef40ce:	c001           	andb %d1,%d0
  ef40d0:	7210           	moveq #16,%d1
  ef40d2:	e3a8           	lsll %d1,%d0
  ef40d4:	2d40 fffc      	movel %d0,%fp@(-4)
  ef40d8:	2d4c fff0      	movel %a4,%fp@(-16)
  ef40dc:	42ae fff8      	clrl %fp@(-8)
  ef40e0:	206e fff0      	moveal %fp@(-16),%a0
  ef40e4:	4250           	clrw %a0@
  ef40e6:	54ae fff0      	addql #2,%fp@(-16)
  ef40ea:	52ae fff8      	addql #1,%fp@(-8)
  ef40ee:	0cae 0000 0400 	cmpil #1024,%fp@(-8)
  ef40f4:	fff8 
  ef40f6:	6de8           	blts 0xef40e0
  ef40f8:	42ae fff8      	clrl %fp@(-8)
  ef40fc:	302e fffa      	movew %fp@(-6),%d0
  ef4100:	0254 f000      	andiw #-4096,%a4@
  ef4104:	0240 0fff      	andiw #4095,%d0
  ef4108:	8154           	orw %d0,%a4@
  ef410a:	4878 0400      	pea 0x400
  ef410e:	202e fffc      	movel %fp@(-4),%d0
  ef4112:	0680 00f0 0000 	addil #15728640,%d0
  ef4118:	2f00           	movel %d0,%sp@-
  ef411a:	4eba ea6c      	jsr %pc@(0xef2b88)
  ef411e:	504f           	addqw #8,%sp
  ef4120:	52ae fff8      	addql #1,%fp@(-8)
  ef4124:	0cae 0000 0008 	cmpil #8,%fp@(-8)
  ef412a:	fff8 
  ef412c:	6dce           	blts 0xef40fc
  ef412e:	2d4c fff4      	movel %a4,%fp@(-12)
  ef4132:	42ae fff8      	clrl %fp@(-8)
  ef4136:	206e fff4      	moveal %fp@(-12),%a0
  ef413a:	08d0 0007      	bset #7,%a0@
  ef413e:	206e fff4      	moveal %fp@(-12),%a0
  ef4142:	302e fffa      	movew %fp@(-6),%d0
  ef4146:	0250 f000      	andiw #-4096,%a0@
  ef414a:	0240 0fff      	andiw #4095,%d0
  ef414e:	8150           	orw %d0,%a0@
  ef4150:	54ae fff4      	addql #2,%fp@(-12)
  ef4154:	52ae fff8      	addql #1,%fp@(-8)
  ef4158:	0cae 0000 0008 	cmpil #8,%fp@(-8)
  ef415e:	fff8 
  ef4160:	6dd4           	blts 0xef4136
  ef4162:	026c f000 07fe 	andiw #-4096,%a4@(2046)
  ef4168:	202e fffc      	movel %fp@(-4),%d0
  ef416c:	0680 00f0 0000 	addil #15728640,%d0
  ef4172:	2a40           	moveal %d0,%a5
  ef4174:	7201           	moveq #1,%d1
  ef4176:	3b41 0462      	movew %d1,%a5@(1122)
  ef417a:	2b4c 045a      	movel %a4,%a5@(1114)
  ef417e:	206e 0008      	moveal %fp@(8),%a0
  ef4182:	214d 0006      	movel %a5,%a0@(6)
  ef4186:	4855           	pea %a5@
  ef4188:	610c           	bsrs 0xef4196
  ef418a:	584f           	addqw #4,%sp
  ef418c:	4cee 3000 ffe8 	moveml %fp@(-24),%a4-%a5
  ef4192:	4e5e           	unlk %fp
  ef4194:	4e75           	rts
  ef4196:	4e56 ffc4      	linkw %fp,#-60
  ef419a:	48d7 3880      	moveml %d7/%a3-%a5,%sp@
  ef419e:	2a6e 0008      	moveal %fp@(8),%a5
  ef41a2:	41ed 0400      	lea %a5@(1024),%a0
  ef41a6:	2d48 fffc      	movel %a0,%fp@(-4)
  ef41aa:	41ed 0408      	lea %a5@(1032),%a0
  ef41ae:	2d48 fff8      	movel %a0,%fp@(-8)
  ef41b2:	2d4d fff4      	movel %a5,%fp@(-12)
  ef41b6:	2d4d fff0      	movel %a5,%fp@(-16)
  ef41ba:	286d 045a      	moveal %a5@(1114),%a4
  ef41be:	266d 045e      	moveal %a5@(1118),%a3
  ef41c2:	42ae ffe8      	clrl %fp@(-24)
  ef41c6:	6036           	bras 0xef41fe
  ef41c8:	52ae ffec      	addql #1,%fp@(-20)
  ef41cc:	0cae 0001 86a0 	cmpil #100000,%fp@(-20)
  ef41d2:	ffec 
  ef41d4:	6c10           	bges 0xef41e6
  ef41d6:	206e fffc      	moveal %fp@(-4),%a0
  ef41da:	0c10 0001      	cmpib #1,%a0@
  ef41de:	67e8           	beqs 0xef41c8
  ef41e0:	7201           	moveq #1,%d1
  ef41e2:	1d41 ffe7      	moveb %d1,%fp@(-25)
  ef41e6:	4a2e ffe7      	tstb %fp@(-25)
  ef41ea:	6600 00ae      	bnew 0xef429a
  ef41ee:	52ae ffe8      	addql #1,%fp@(-24)
  ef41f2:	0cae 0000 000a 	cmpil #10,%fp@(-24)
  ef41f8:	ffe8 
  ef41fa:	6c00 009e      	bgew 0xef429a
  ef41fe:	4878 000a      	pea 0xa
  ef4202:	486d 03f6      	pea %a5@(1014)
  ef4206:	4eba e980      	jsr %pc@(0xef2b88)
  ef420a:	504f           	addqw #8,%sp
  ef420c:	2f2e fffc      	movel %fp@(-4),%sp@-
  ef4210:	4855           	pea %a5@
  ef4212:	6100 041c      	bsrw 0xef4630
  ef4216:	504f           	addqw #8,%sp
  ef4218:	2b40 03fc      	movel %d0,%a5@(1020)
  ef421c:	4878 0008      	pea 0x8
  ef4220:	2f2e fffc      	movel %fp@(-4),%sp@-
  ef4224:	4eba e962      	jsr %pc@(0xef2b88)
  ef4228:	504f           	addqw #8,%sp
  ef422a:	206e fffc      	moveal %fp@(-4),%a0
  ef422e:	7e01           	moveq #1,%d7
  ef4230:	1087           	moveb %d7,%a0@
  ef4232:	206e fffc      	moveal %fp@(-4),%a0
  ef4236:	42a8 0004      	clrl %a0@(4)
  ef423a:	2f2e fff8      	movel %fp@(-8),%sp@-
  ef423e:	4855           	pea %a5@
  ef4240:	6100 042e      	bsrw 0xef4670
  ef4244:	504f           	addqw #8,%sp
  ef4246:	206e fffc      	moveal %fp@(-4),%a0
  ef424a:	3140 0002      	movew %d0,%a0@(2)
  ef424e:	4855           	pea %a5@
  ef4250:	4855           	pea %a5@
  ef4252:	6100 03dc      	bsrw 0xef4630
  ef4256:	504f           	addqw #8,%sp
  ef4258:	206e fffc      	moveal %fp@(-4),%a0
  ef425c:	2140 0004      	movel %d0,%a0@(4)
  ef4260:	4878 0010      	pea 0x10
  ef4264:	2f2e fff8      	movel %fp@(-8),%sp@-
  ef4268:	4eba e91e      	jsr %pc@(0xef2b88)
  ef426c:	504f           	addqw #8,%sp
  ef426e:	08ec 0007 0840 	bset #7,%a4@(2112)
  ef4274:	7e0a           	moveq #10,%d7
  ef4276:	5387           	subql #1,%d7
  ef4278:	6efc           	bgts 0xef4276
  ef427a:	08ac 0007 0840 	bclr #7,%a4@(2112)
  ef4280:	7e64           	moveq #100,%d7
  ef4282:	5387           	subql #1,%d7
  ef4284:	6efc           	bgts 0xef4282
  ef4286:	4855           	pea %a5@
  ef4288:	6100 01a0      	bsrw 0xef442a
  ef428c:	584f           	addqw #4,%sp
  ef428e:	422e ffe7      	clrb %fp@(-25)
  ef4292:	42ae ffec      	clrl %fp@(-20)
  ef4296:	6000 ff3e      	braw 0xef41d6
  ef429a:	4a2e ffe7      	tstb %fp@(-25)
  ef429e:	6610           	bnes 0xef42b0
  ef42a0:	4879 00ef 7d70 	pea 0xef7d70
  ef42a6:	4eba ddb4      	jsr %pc@(0xef205c)
  ef42aa:	584f           	addqw #4,%sp
  ef42ac:	7001           	moveq #1,%d0
  ef42ae:	6066           	bras 0xef4316
  ef42b0:	4878 000c      	pea 0xc
  ef42b4:	2f2e fff4      	movel %fp@(-12),%sp@-
  ef42b8:	4eba e8ce      	jsr %pc@(0xef2b88)
  ef42bc:	504f           	addqw #8,%sp
  ef42be:	206e fff4      	moveal %fp@(-12),%a0
  ef42c2:	72f8           	moveq #-8,%d1
  ef42c4:	c328 0002      	andb %d1,%a0@(2)
  ef42c8:	7201           	moveq #1,%d1
  ef42ca:	8328 0002      	orb %d1,%a0@(2)
  ef42ce:	202e fff4      	movel %fp@(-12),%d0
  ef42d2:	5c80           	addql #6,%d0
  ef42d4:	2f00           	movel %d0,%sp@-
  ef42d6:	42a7           	clrl %sp@-
  ef42d8:	4eba 1094      	jsr %pc@(0xef536e)
  ef42dc:	504f           	addqw #8,%sp
  ef42de:	2f2e fff4      	movel %fp@(-12),%sp@-
  ef42e2:	4855           	pea %a5@
  ef42e4:	6100 016a      	bsrw 0xef4450
  ef42e8:	504f           	addqw #8,%sp
  ef42ea:	2f2e fff0      	movel %fp@(-16),%sp@-
  ef42ee:	6100 03ae      	bsrw 0xef469e
  ef42f2:	584f           	addqw #4,%sp
  ef42f4:	2f2e fff0      	movel %fp@(-16),%sp@-
  ef42f8:	4855           	pea %a5@
  ef42fa:	6100 0154      	bsrw 0xef4450
  ef42fe:	504f           	addqw #8,%sp
  ef4300:	0c6d 0001 0462 	cmpiw #1,%a5@(1122)
  ef4306:	6606           	bnes 0xef430e
  ef4308:	08ec 0006 0840 	bset #6,%a4@(2112)
  ef430e:	4855           	pea %a5@
  ef4310:	610e           	bsrs 0xef4320
  ef4312:	584f           	addqw #4,%sp
  ef4314:	7000           	moveq #0,%d0
  ef4316:	4cee 3880 ffc4 	moveml %fp@(-60),%d7/%a3-%a5
  ef431c:	4e5e           	unlk %fp
  ef431e:	4e75           	rts
  ef4320:	4e56 ffec      	linkw %fp,#-20
  ef4324:	48d7 3c00      	moveml %a2-%a5,%sp@
  ef4328:	2a6e 0008      	moveal %fp@(8),%a5
  ef432c:	49ed 0418      	lea %a5@(1048),%a4
  ef4330:	41ed 0422      	lea %a5@(1058),%a0
  ef4334:	2d48 fffc      	movel %a0,%fp@(-4)
  ef4338:	47ed 042c      	lea %a5@(1068),%a3
  ef433c:	45ed 0408      	lea %a5@(1032),%a2
  ef4340:	1012           	moveb %a2@,%d0
  ef4342:	7270           	moveq #112,%d1
  ef4344:	c001           	andb %d1,%d0
  ef4346:	7240           	moveq #64,%d1
  ef4348:	b001           	cmpb %d1,%d0
  ef434a:	6616           	bnes 0xef4362
  ef434c:	4a6a 0002      	tstw %a2@(2)
  ef4350:	66fa           	bnes 0xef434c
  ef4352:	357c 4000 0002 	movew #16384,%a2@(2)
  ef4358:	4855           	pea %a5@
  ef435a:	6100 00ce      	bsrw 0xef442a
  ef435e:	584f           	addqw #4,%sp
  ef4360:	60de           	bras 0xef4340
  ef4362:	4a6a 0002      	tstw %a2@(2)
  ef4366:	66fa           	bnes 0xef4362
  ef4368:	4254           	clrw %a4@
  ef436a:	2f2e fffc      	movel %fp@(-4),%sp@-
  ef436e:	4855           	pea %a5@
  ef4370:	6100 02fe      	bsrw 0xef4670
  ef4374:	504f           	addqw #8,%sp
  ef4376:	3940 0002      	movew %d0,%a4@(2)
  ef437a:	08ac 0007 0009 	bclr #7,%a4@(9)
  ef4380:	486d 0464      	pea %a5@(1124)
  ef4384:	4855           	pea %a5@
  ef4386:	6100 02a8      	bsrw 0xef4630
  ef438a:	504f           	addqw #8,%sp
  ef438c:	2940 0004      	movel %d0,%a4@(4)
  ef4390:	72c0           	moveq #-64,%d1
  ef4392:	c32c 0009      	andb %d1,%a4@(9)
  ef4396:	7206           	moveq #6,%d1
  ef4398:	832c 0009      	orb %d1,%a4@(9)
  ef439c:	7240           	moveq #64,%d1
  ef439e:	1941 0008      	moveb %d1,%a4@(8)
  ef43a2:	206e fffc      	moveal %fp@(-4),%a0
  ef43a6:	4250           	clrw %a0@
  ef43a8:	206e fffc      	moveal %fp@(-4),%a0
  ef43ac:	317c ffff 0002 	movew #-1,%a0@(2)
  ef43b2:	206e fffc      	moveal %fp@(-4),%a0
  ef43b6:	08e8 0007 0009 	bset #7,%a0@(9)
  ef43bc:	486d 10e4      	pea %a5@(4324)
  ef43c0:	4855           	pea %a5@
  ef43c2:	6100 026c      	bsrw 0xef4630
  ef43c6:	504f           	addqw #8,%sp
  ef43c8:	206e fffc      	moveal %fp@(-4),%a0
  ef43cc:	2140 0004      	movel %d0,%a0@(4)
  ef43d0:	206e fffc      	moveal %fp@(-4),%a0
  ef43d4:	72c0           	moveq #-64,%d1
  ef43d6:	c328 0009      	andb %d1,%a0@(9)
  ef43da:	206e fffc      	moveal %fp@(-4),%a0
  ef43de:	720a           	moveq #10,%d1
  ef43e0:	1141 0008      	moveb %d1,%a0@(8)
  ef43e4:	4253           	clrw %a3@
  ef43e6:	377c ffff 0004 	movew #-1,%a3@(4)
  ef43ec:	08eb 0007 0003 	bset #7,%a3@(3)
  ef43f2:	08eb 0006 0003 	bset #6,%a3@(3)
  ef43f8:	4854           	pea %a4@
  ef43fa:	4855           	pea %a5@
  ef43fc:	6100 0272      	bsrw 0xef4670
  ef4400:	504f           	addqw #8,%sp
  ef4402:	3740 0006      	movew %d0,%a3@(6)
  ef4406:	4853           	pea %a3@
  ef4408:	4855           	pea %a5@
  ef440a:	6100 0264      	bsrw 0xef4670
  ef440e:	504f           	addqw #8,%sp
  ef4410:	3540 0006      	movew %d0,%a2@(6)
  ef4414:	357c 1000 0002 	movew #4096,%a2@(2)
  ef441a:	4855           	pea %a5@
  ef441c:	610c           	bsrs 0xef442a
  ef441e:	584f           	addqw #4,%sp
  ef4420:	4cee 3c00 ffec 	moveml %fp@(-20),%a2-%a5
  ef4426:	4e5e           	unlk %fp
  ef4428:	4e75           	rts
  ef442a:	4e56 fffc      	linkw %fp,#-4
  ef442e:	2e8d           	movel %a5,%sp@
  ef4430:	2a6e 0008      	moveal %fp@(8),%a5
  ef4434:	206d 045a      	moveal %a5@(1114),%a0
  ef4438:	08e8 0005 0840 	bset #5,%a0@(2112)
  ef443e:	206d 045a      	moveal %a5@(1114),%a0
  ef4442:	08a8 0005 0840 	bclr #5,%a0@(2112)
  ef4448:	2a6e fffc      	moveal %fp@(-4),%a5
  ef444c:	4e5e           	unlk %fp
  ef444e:	4e75           	rts
  ef4450:	4e56 fff4      	linkw %fp,#-12
  ef4454:	48d7 3800      	moveml %a3-%a5,%sp@
  ef4458:	2a6e 0008      	moveal %fp@(8),%a5
  ef445c:	286e 000c      	moveal %fp@(12),%a4
  ef4460:	47ed 0408      	lea %a5@(1032),%a3
  ef4464:	4254           	clrw %a4@
  ef4466:	08ec 0007 0003 	bset #7,%a4@(3)
  ef446c:	426c 0004      	clrw %a4@(4)
  ef4470:	4a6b 0002      	tstw %a3@(2)
  ef4474:	66fa           	bnes 0xef4470
  ef4476:	4854           	pea %a4@
  ef4478:	4855           	pea %a5@
  ef447a:	6100 01f4      	bsrw 0xef4670
  ef447e:	504f           	addqw #8,%sp
  ef4480:	3740 0004      	movew %d0,%a3@(4)
  ef4484:	7201           	moveq #1,%d1
  ef4486:	3741 0002      	movew %d1,%a3@(2)
  ef448a:	4855           	pea %a5@
  ef448c:	619c           	bsrs 0xef442a
  ef448e:	584f           	addqw #4,%sp
  ef4490:	082c 0007 0001 	btst #7,%a4@(1)
  ef4496:	67f8           	beqs 0xef4490
  ef4498:	4a6b 0002      	tstw %a3@(2)
  ef449c:	66fa           	bnes 0xef4498
  ef449e:	082b 0007 0001 	btst #7,%a3@(1)
  ef44a4:	6706           	beqs 0xef44ac
  ef44a6:	006b 0080 0002 	oriw #128,%a3@(2)
  ef44ac:	082b 0005 0001 	btst #5,%a3@(1)
  ef44b2:	6706           	beqs 0xef44ba
  ef44b4:	7220           	moveq #32,%d1
  ef44b6:	836b 0002      	orw %d1,%a3@(2)
  ef44ba:	4855           	pea %a5@
  ef44bc:	6100 ff6c      	bsrw 0xef442a
  ef44c0:	584f           	addqw #4,%sp
  ef44c2:	4cee 3800 fff4 	moveml %fp@(-12),%a3-%a5
  ef44c8:	4e5e           	unlk %fp
  ef44ca:	4e75           	rts
  ef44cc:	4e56 fff4      	linkw %fp,#-12
  ef44d0:	48d7 3800      	moveml %a3-%a5,%sp@
  ef44d4:	2a6e 0008      	moveal %fp@(8),%a5
  ef44d8:	49ed 0452      	lea %a5@(1106),%a4
  ef44dc:	47ed 0442      	lea %a5@(1090),%a3
  ef44e0:	4878 0008      	pea 0x8
  ef44e4:	4854           	pea %a4@
  ef44e6:	4eba e6a0      	jsr %pc@(0xef2b88)
  ef44ea:	504f           	addqw #8,%sp
  ef44ec:	08ec 0007 0001 	bset #7,%a4@(1)
  ef44f2:	102e 0013      	moveb %fp@(19),%d0
  ef44f6:	0280 0000 00ff 	andil #255,%d0
  ef44fc:	1880           	moveb %d0,%a4@
  ef44fe:	202e 0010      	movel %fp@(16),%d0
  ef4502:	e080           	asrl #8,%d0
  ef4504:	72c0           	moveq #-64,%d1
  ef4506:	c32c 0001      	andb %d1,%a4@(1)
  ef450a:	723f           	moveq #63,%d1
  ef450c:	c001           	andb %d1,%d0
  ef450e:	812c 0001      	orb %d0,%a4@(1)
  ef4512:	2f2e 0010      	movel %fp@(16),%sp@-
  ef4516:	486d 0aa4      	pea %a5@(2724)
  ef451a:	2f2e 000c      	movel %fp@(12),%sp@-
  ef451e:	4eba e68e      	jsr %pc@(0xef2bae)
  ef4522:	4fef 000c      	lea %sp@(12),%sp
  ef4526:	486d 0aa4      	pea %a5@(2724)
  ef452a:	4855           	pea %a5@
  ef452c:	6100 0102      	bsrw 0xef4630
  ef4530:	504f           	addqw #8,%sp
  ef4532:	2940 0004      	movel %d0,%a4@(4)
  ef4536:	4854           	pea %a4@
  ef4538:	4855           	pea %a5@
  ef453a:	6100 0134      	bsrw 0xef4670
  ef453e:	504f           	addqw #8,%sp
  ef4540:	3740 0006      	movew %d0,%a3@(6)
  ef4544:	72f8           	moveq #-8,%d1
  ef4546:	c32b 0002      	andb %d1,%a3@(2)
  ef454a:	7204           	moveq #4,%d1
  ef454c:	832b 0002      	orb %d1,%a3@(2)
  ef4550:	4853           	pea %a3@
  ef4552:	4855           	pea %a5@
  ef4554:	6100 fefa      	bsrw 0xef4450
  ef4558:	504f           	addqw #8,%sp
  ef455a:	082b 0005 0001 	btst #5,%a3@(1)
  ef4560:	6704           	beqs 0xef4566
  ef4562:	7000           	moveq #0,%d0
  ef4564:	6014           	bras 0xef457a
  ef4566:	0813 0005      	btst #5,%a3@
  ef456a:	670c           	beqs 0xef4578
  ef456c:	4879 00ef 7d87 	pea 0xef7d87
  ef4572:	4eba dae8      	jsr %pc@(0xef205c)
  ef4576:	584f           	addqw #4,%sp
  ef4578:	70ff           	moveq #-1,%d0
  ef457a:	4cee 3800 fff4 	moveml %fp@(-12),%a3-%a5
  ef4580:	4e5e           	unlk %fp
  ef4582:	4e75           	rts
  ef4584:	4e56 ffec      	linkw %fp,#-20
  ef4588:	48d7 3c00      	moveml %a2-%a5,%sp@
  ef458c:	2a6e 0008      	moveal %fp@(8),%a5
  ef4590:	49ed 0418      	lea %a5@(1048),%a4
  ef4594:	47ed 042c      	lea %a5@(1068),%a3
  ef4598:	45ed 0408      	lea %a5@(1032),%a2
  ef459c:	1012           	moveb %a2@,%d0
  ef459e:	7270           	moveq #112,%d1
  ef45a0:	c001           	andb %d1,%d0
  ef45a2:	7240           	moveq #64,%d1
  ef45a4:	b001           	cmpb %d1,%d0
  ef45a6:	6604           	bnes 0xef45ac
  ef45a8:	7000           	moveq #0,%d0
  ef45aa:	607a           	bras 0xef4626
  ef45ac:	082b 0007 0001 	btst #7,%a3@(1)
  ef45b2:	6708           	beqs 0xef45bc
  ef45b4:	082c 0007 0001 	btst #7,%a4@(1)
  ef45ba:	660c           	bnes 0xef45c8
  ef45bc:	4855           	pea %a5@
  ef45be:	6100 fd60      	bsrw 0xef4320
  ef45c2:	584f           	addqw #4,%sp
  ef45c4:	7000           	moveq #0,%d0
  ef45c6:	605e           	bras 0xef4626
  ef45c8:	7000           	moveq #0,%d0
  ef45ca:	102c 0001      	moveb %a4@(1),%d0
  ef45ce:	723f           	moveq #63,%d1
  ef45d0:	c001           	andb %d1,%d0
  ef45d2:	e188           	lsll #8,%d0
  ef45d4:	7200           	moveq #0,%d1
  ef45d6:	1214           	moveb %a4@,%d1
  ef45d8:	d081           	addl %d1,%d0
  ef45da:	2d40 fffc      	movel %d0,%fp@(-4)
  ef45de:	2f00           	movel %d0,%sp@-
  ef45e0:	2f2e 000c      	movel %fp@(12),%sp@-
  ef45e4:	486d 0464      	pea %a5@(1124)
  ef45e8:	4eba e5c4      	jsr %pc@(0xef2bae)
  ef45ec:	4fef 000c      	lea %sp@(12),%sp
  ef45f0:	4a6a 0002      	tstw %a2@(2)
  ef45f4:	66fa           	bnes 0xef45f0
  ef45f6:	082a 0006 0001 	btst #6,%a2@(1)
  ef45fc:	6706           	beqs 0xef4604
  ef45fe:	7240           	moveq #64,%d1
  ef4600:	836a 0002      	orw %d1,%a2@(2)
  ef4604:	082a 0004 0001 	btst #4,%a2@(1)
  ef460a:	6706           	beqs 0xef4612
  ef460c:	7210           	moveq #16,%d1
  ef460e:	836a 0002      	orw %d1,%a2@(2)
  ef4612:	4855           	pea %a5@
  ef4614:	6100 fe14      	bsrw 0xef442a
  ef4618:	584f           	addqw #4,%sp
  ef461a:	4855           	pea %a5@
  ef461c:	6100 fd02      	bsrw 0xef4320
  ef4620:	584f           	addqw #4,%sp
  ef4622:	202e fffc      	movel %fp@(-4),%d0
  ef4626:	4cee 3c00 ffec 	moveml %fp@(-20),%a2-%a5
  ef462c:	4e5e           	unlk %fp
  ef462e:	4e75           	rts
  ef4630:	4e56 fff8      	linkw %fp,#-8
  ef4634:	206e 0008      	moveal %fp@(8),%a0
  ef4638:	0c68 0001 0462 	cmpiw #1,%a0@(1122)
  ef463e:	660c           	bnes 0xef464c
  ef4640:	202e 000c      	movel %fp@(12),%d0
  ef4644:	9088           	subl %a0,%d0
  ef4646:	2d40 fffc      	movel %d0,%fp@(-4)
  ef464a:	6006           	bras 0xef4652
  ef464c:	2d6e 000c fffc 	movel %fp@(12),%fp@(-4)
  ef4652:	1d6e ffff fff8 	moveb %fp@(-1),%fp@(-8)
  ef4658:	1d6e fffe fff9 	moveb %fp@(-2),%fp@(-7)
  ef465e:	1d6e fffd fffa 	moveb %fp@(-3),%fp@(-6)
  ef4664:	422e fffb      	clrb %fp@(-5)
  ef4668:	202e fff8      	movel %fp@(-8),%d0
  ef466c:	4e5e           	unlk %fp
  ef466e:	4e75           	rts
  ef4670:	4e56 fff8      	linkw %fp,#-8
  ef4674:	2e8d           	movel %a5,%sp@
  ef4676:	2a6e 0008      	moveal %fp@(8),%a5
  ef467a:	202e 000c      	movel %fp@(12),%d0
  ef467e:	908d           	subl %a5,%d0
  ef4680:	3d40 fffe      	movew %d0,%fp@(-2)
  ef4684:	1d6e ffff fffc 	moveb %fp@(-1),%fp@(-4)
  ef468a:	1d6e fffe fffd 	moveb %fp@(-2),%fp@(-3)
  ef4690:	302e fffc      	movew %fp@(-4),%d0
  ef4694:	48c0           	extl %d0
  ef4696:	2a6e fff8      	moveal %fp@(-8),%a5
  ef469a:	4e5e           	unlk %fp
  ef469c:	4e75           	rts
  ef469e:	4e56 fffc      	linkw %fp,#-4
  ef46a2:	2e8d           	movel %a5,%sp@
  ef46a4:	2a6e 0008      	moveal %fp@(8),%a5
  ef46a8:	4878 0012      	pea 0x12
  ef46ac:	4855           	pea %a5@
  ef46ae:	4eba e4d8      	jsr %pc@(0xef2b88)
  ef46b2:	504f           	addqw #8,%sp
  ef46b4:	72f8           	moveq #-8,%d1
  ef46b6:	c32d 0002      	andb %d1,%a5@(2)
  ef46ba:	7202           	moveq #2,%d1
  ef46bc:	832d 0002      	orb %d1,%a5@(2)
  ef46c0:	72f0           	moveq #-16,%d1
  ef46c2:	c32d 0006      	andb %d1,%a5@(6)
  ef46c6:	720c           	moveq #12,%d1
  ef46c8:	832d 0006      	orb %d1,%a5@(6)
  ef46cc:	72f0           	moveq #-16,%d1
  ef46ce:	c32d 0007      	andb %d1,%a5@(7)
  ef46d2:	7208           	moveq #8,%d1
  ef46d4:	832d 0007      	orb %d1,%a5@(7)
  ef46d8:	72cf           	moveq #-49,%d1
  ef46da:	c32d 0009      	andb %d1,%a5@(9)
  ef46de:	7220           	moveq #32,%d1
  ef46e0:	832d 0009      	orb %d1,%a5@(9)
  ef46e4:	72f8           	moveq #-8,%d1
  ef46e6:	c32d 0009      	andb %d1,%a5@(9)
  ef46ea:	7206           	moveq #6,%d1
  ef46ec:	832d 0009      	orb %d1,%a5@(9)
  ef46f0:	08ed 0003 0009 	bset #3,%a5@(9)
  ef46f6:	7260           	moveq #96,%d1
  ef46f8:	1b41 000b      	moveb %d1,%a5@(11)
  ef46fc:	72f8           	moveq #-8,%d1
  ef46fe:	c32d 000d      	andb %d1,%a5@(13)
  ef4702:	7202           	moveq #2,%d1
  ef4704:	832d 000d      	orb %d1,%a5@(13)
  ef4708:	7240           	moveq #64,%d1
  ef470a:	1b41 0010      	moveb %d1,%a5@(16)
  ef470e:	002d 00f0 000d 	orib #-16,%a5@(13)
  ef4714:	2a6e fffc      	moveal %fp@(-4),%a5
  ef4718:	4e5e           	unlk %fp
  ef471a:	4e75           	rts
  ef471c:	4e56 0000      	linkw %fp,#0
  ef4720:	4e5e           	unlk %fp
  ef4722:	4e75           	rts
  ef4724:	4e56 fffc      	linkw %fp,#-4
  ef4728:	2e87           	movel %d7,%sp@
  ef472a:	7e00           	moveq #0,%d7
  ef472c:	6008           	bras 0xef4736
  ef472e:	5287           	addql #1,%d7
  ef4730:	7204           	moveq #4,%d1
  ef4732:	be81           	cmpl %d1,%d7
  ef4734:	6c26           	bges 0xef475c
  ef4736:	2007           	movel %d7,%d0
  ef4738:	e580           	asll #2,%d0
  ef473a:	2040           	moveal %d0,%a0
  ef473c:	d1fc 00ef 7da4 	addal #15695268,%a0
  ef4742:	2010           	movel %a0@,%d0
  ef4744:	0680 00eb 0000 	addil #15400960,%d0
  ef474a:	2f00           	movel %d0,%sp@-
  ef474c:	4eba e586      	jsr %pc@(0xef2cd4)
  ef4750:	584f           	addqw #4,%sp
  ef4752:	72ff           	moveq #-1,%d1
  ef4754:	b081           	cmpl %d1,%d0
  ef4756:	67d6           	beqs 0xef472e
  ef4758:	2007           	movel %d7,%d0
  ef475a:	6002           	bras 0xef475e
  ef475c:	70ff           	moveq #-1,%d0
  ef475e:	2e2e fffc      	movel %fp@(-4),%d7
  ef4762:	4e5e           	unlk %fp
  ef4764:	4e75           	rts
  ef4766:	4e56 0000      	linkw %fp,#0
  ef476a:	206e 0008      	moveal %fp@(8),%a0
  ef476e:	1028 0001      	moveb %a0@(1),%d0
  ef4772:	0280 0000 00ff 	andil #255,%d0
  ef4778:	c0ae 000c      	andl %fp@(12),%d0
  ef477c:	7200           	moveq #0,%d1
  ef477e:	4a80           	tstl %d0
  ef4780:	56c1           	sne %d1
  ef4782:	4401           	negb %d1
  ef4784:	2001           	movel %d1,%d0
  ef4786:	4e5e           	unlk %fp
  ef4788:	4e75           	rts
  ef478a:	4e56 ffd4      	linkw %fp,#-44
  ef478e:	48d7 38c0      	moveml %d6-%d7/%a3-%a5,%sp@
  ef4792:	2a6e 0008      	moveal %fp@(8),%a5
  ef4796:	4878 0010      	pea 0x10
  ef479a:	486e ffee      	pea %fp@(-18)
  ef479e:	4eba e3e8      	jsr %pc@(0xef2b88)
  ef47a2:	504f           	addqw #8,%sp
  ef47a4:	202d 008a      	movel %a5@(138),%d0
  ef47a8:	7203           	moveq #3,%d1
  ef47aa:	c081           	andl %d1,%d0
  ef47ac:	2d40 ffee      	movel %d0,%fp@(-18)
  ef47b0:	202d 008a      	movel %a5@(138),%d0
  ef47b4:	e480           	asrl #2,%d0
  ef47b6:	7201           	moveq #1,%d1
  ef47b8:	c081           	andl %d1,%d0
  ef47ba:	3d40 fffe      	movew %d0,%fp@(-2)
  ef47be:	2d6d 0086 ffea 	movel %a5@(134),%fp@(-22)
  ef47c4:	0cae 0000 0004 	cmpil #4,%fp@(-22)
  ef47ca:	ffea 
  ef47cc:	6c12           	bges 0xef47e0
  ef47ce:	202e ffea      	movel %fp@(-22),%d0
  ef47d2:	e580           	asll #2,%d0
  ef47d4:	2040           	moveal %d0,%a0
  ef47d6:	d1fc 00ef 7da4 	addal #15695268,%a0
  ef47dc:	2d50 ffea      	movel %a0@,%fp@(-22)
  ef47e0:	202e ffea      	movel %fp@(-22),%d0
  ef47e4:	0680 00eb 0000 	addil #15400960,%d0
  ef47ea:	2840           	moveal %d0,%a4
  ef47ec:	2d4c fffa      	movel %a4,%fp@(-6)
  ef47f0:	4854           	pea %a4@
  ef47f2:	4eba e4e0      	jsr %pc@(0xef2cd4)
  ef47f6:	584f           	addqw #4,%sp
  ef47f8:	72ff           	moveq #-1,%d1
  ef47fa:	b081           	cmpl %d1,%d0
  ef47fc:	6616           	bnes 0xef4814
  ef47fe:	2f2e ffea      	movel %fp@(-22),%sp@-
  ef4802:	4879 00ef 7586 	pea 0xef7586
  ef4808:	4eba d852      	jsr %pc@(0xef205c)
  ef480c:	504f           	addqw #8,%sp
  ef480e:	70ff           	moveq #-1,%d0
  ef4810:	6000 0156      	braw 0xef4968
  ef4814:	7202           	moveq #2,%d1
  ef4816:	3d41 fff2      	movew %d1,%fp@(-14)
  ef481a:	3d41 fff4      	movew %d1,%fp@(-12)
  ef481e:	7204           	moveq #4,%d1
  ef4820:	3d41 fff6      	movew %d1,%fp@(-10)
  ef4824:	426e fff8      	clrw %fp@(-8)
  ef4828:	422c 0001      	clrb %a4@(1)
  ef482c:	4879 00f0 0200 	pea 0xf00200
  ef4832:	42a7           	clrl %sp@-
  ef4834:	486e ffee      	pea %fp@(-18)
  ef4838:	4878 008f      	pea 0x8f
  ef483c:	6100 0134      	bsrw 0xef4972
  ef4840:	4fef 0010      	lea %sp@(16),%sp
  ef4844:	4a80           	tstl %d0
  ef4846:	6600 0116      	bnew 0xef495e
  ef484a:	7e02           	moveq #2,%d7
  ef484c:	1947 0001      	moveb %d7,%a4@(1)
  ef4850:	7c0f           	moveq #15,%d6
  ef4852:	5386           	subql #1,%d6
  ef4854:	6efc           	bgts 0xef4852
  ef4856:	102c 0001      	moveb %a4@(1),%d0
  ef485a:	7000           	moveq #0,%d0
  ef485c:	102c 0001      	moveb %a4@(1),%d0
  ef4860:	2e00           	movel %d0,%d7
  ef4862:	7010           	moveq #16,%d0
  ef4864:	322e fff0      	movew %fp@(-16),%d1
  ef4868:	e3a0           	asll %d1,%d0
  ef486a:	2f00           	movel %d0,%sp@-
  ef486c:	4854           	pea %a4@
  ef486e:	487a fef6      	pea %pc@(0xef4766)
  ef4872:	4eba e3b6      	jsr %pc@(0xef2c2a)
  ef4876:	4fef 000c      	lea %sp@(12),%sp
  ef487a:	4a80           	tstl %d0
  ef487c:	660c           	bnes 0xef488a
  ef487e:	7c0f           	moveq #15,%d6
  ef4880:	5386           	subql #1,%d6
  ef4882:	6efc           	bgts 0xef4880
  ef4884:	70ff           	moveq #-1,%d0
  ef4886:	6000 00e0      	braw 0xef4968
  ef488a:	4879 00f0 0200 	pea 0xf00200
  ef4890:	42a7           	clrl %sp@-
  ef4892:	486e ffee      	pea %fp@(-18)
  ef4896:	4878 0089      	pea 0x89
  ef489a:	6100 00d6      	bsrw 0xef4972
  ef489e:	4fef 0010      	lea %sp@(16),%sp
  ef48a2:	4a80           	tstl %d0
  ef48a4:	6600 00b8      	bnew 0xef495e
  ef48a8:	426e fff8      	clrw %fp@(-8)
  ef48ac:	600c           	bras 0xef48ba
  ef48ae:	526e fff8      	addqw #1,%fp@(-8)
  ef48b2:	0c6e 0004 fff8 	cmpiw #4,%fp@(-8)
  ef48b8:	646c           	bccs 0xef4926
  ef48ba:	4279 00f0 03fc 	clrw 0xf003fc
  ef48c0:	4879 00f0 0200 	pea 0xf00200
  ef48c6:	42a7           	clrl %sp@-
  ef48c8:	486e ffee      	pea %fp@(-18)
  ef48cc:	4878 0081      	pea 0x81
  ef48d0:	6100 00a0      	bsrw 0xef4972
  ef48d4:	4fef 0010      	lea %sp@(16),%sp
  ef48d8:	4a80           	tstl %d0
  ef48da:	66d2           	bnes 0xef48ae
  ef48dc:	4879 00f0 0200 	pea 0xf00200
  ef48e2:	4eba e2f4      	jsr %pc@(0xef2bd8)
  ef48e6:	584f           	addqw #4,%sp
  ef48e8:	4a80           	tstl %d0
  ef48ea:	66c2           	bnes 0xef48ae
  ef48ec:	302e fff8      	movew %fp@(-8),%d0
  ef48f0:	b079 00f0 03b8 	cmpw 0xf003b8,%d0
  ef48f6:	66b6           	bnes 0xef48ae
  ef48f8:	302e fffe      	movew %fp@(-2),%d0
  ef48fc:	b079 00f0 03ba 	cmpw 0xf003ba,%d0
  ef4902:	66aa           	bnes 0xef48ae
  ef4904:	3d79 00f0 03b4 	movew 0xf003b4,%fp@(-10)
  ef490a:	fff6 
  ef490c:	3d79 00f0 03b6 	movew 0xf003b6,%fp@(-14)
  ef4912:	fff2 
  ef4914:	3d79 00f0 03b0 	movew 0xf003b0,%fp@(-12)
  ef491a:	fff4 
  ef491c:	3d79 00f0 03b8 	movew 0xf003b8,%fp@(-8)
  ef4922:	fff8 
  ef4924:	600c           	bras 0xef4932
  ef4926:	4879 00ef 755c 	pea 0xef755c
  ef492c:	4eba d72e      	jsr %pc@(0xef205c)
  ef4930:	584f           	addqw #4,%sp
  ef4932:	267c 0000 4000 	moveal #16384,%a3
  ef4938:	7e01           	moveq #1,%d7
  ef493a:	600c           	bras 0xef4948
  ef493c:	47eb 0200      	lea %a3@(512),%a3
  ef4940:	5287           	addql #1,%d7
  ef4942:	7210           	moveq #16,%d1
  ef4944:	be81           	cmpl %d1,%d7
  ef4946:	6c1a           	bges 0xef4962
  ef4948:	4853           	pea %a3@
  ef494a:	2f07           	movel %d7,%sp@-
  ef494c:	486e ffee      	pea %fp@(-18)
  ef4950:	4878 0081      	pea 0x81
  ef4954:	611c           	bsrs 0xef4972
  ef4956:	4fef 0010      	lea %sp@(16),%sp
  ef495a:	4a80           	tstl %d0
  ef495c:	67de           	beqs 0xef493c
  ef495e:	70ff           	moveq #-1,%d0
  ef4960:	6006           	bras 0xef4968
  ef4962:	203c 0000 4000 	movel #16384,%d0
  ef4968:	4cee 38c0 ffd4 	moveml %fp@(-44),%d6-%d7/%a3-%a5
  ef496e:	4e5e           	unlk %fp
  ef4970:	4e75           	rts
  ef4972:	4e56 ffc8      	linkw %fp,#-56
  ef4976:	48d7 3cf4      	moveml %d2/%d4-%d7/%a2-%a5,%sp@
  ef497a:	2e2e 0008      	movel %fp@(8),%d7
  ef497e:	2a6e 000c      	moveal %fp@(12),%a5
  ef4982:	2c2e 0010      	movel %fp@(16),%d6
  ef4986:	266d 000c      	moveal %a5@(12),%a3
  ef498a:	42ae ffee      	clrl %fp@(-18)
  ef498e:	287c 00f0 0100 	moveal #15728896,%a4
  ef4994:	4878 0018      	pea 0x18
  ef4998:	4879 00f0 0100 	pea 0xf00100
  ef499e:	4eba e1e8      	jsr %pc@(0xef2b88)
  ef49a2:	504f           	addqw #8,%sp
  ef49a4:	247c 00f0 0200 	moveal #15729152,%a2
  ef49aa:	7200           	moveq #0,%d1
  ef49ac:	322d 0004      	movew %a5@(4),%d1
  ef49b0:	2006           	movel %d6,%d0
  ef49b2:	4eba d932      	jsr %pc@(0xef22e6)
  ef49b6:	3a00           	movew %d0,%d5
  ef49b8:	c0ed 0004      	muluw %a5@(4),%d0
  ef49bc:	2206           	movel %d6,%d1
  ef49be:	9280           	subl %d0,%d1
  ef49c0:	3d41 fffc      	movew %d1,%fp@(-4)
  ef49c4:	3005           	movew %d5,%d0
  ef49c6:	0280 0000 ffff 	andil #65535,%d0
  ef49cc:	80ed 0008      	divuw %a5@(8),%d0
  ef49d0:	0280 0000 ffff 	andil #65535,%d0
  ef49d6:	3d40 fffe      	movew %d0,%fp@(-2)
  ef49da:	7400           	moveq #0,%d2
  ef49dc:	342d 000a      	movew %a5@(10),%d2
  ef49e0:	7000           	moveq #0,%d0
  ef49e2:	3005           	movew %d5,%d0
  ef49e4:	d480           	addl %d0,%d2
  ef49e6:	302e fffe      	movew %fp@(-2),%d0
  ef49ea:	c0ed 0008      	muluw %a5@(8),%d0
  ef49ee:	9480           	subl %d0,%d2
  ef49f0:	3d42 fffa      	movew %d2,%fp@(-6)
  ef49f4:	302e fffe      	movew %fp@(-2),%d0
  ef49f8:	b06d 0006      	cmpw %a5@(6),%d0
  ef49fc:	6200 0102      	bhiw 0xef4b00
  ef4a00:	082b 0000 0001 	btst #0,%a3@(1)
  ef4a06:	6708           	beqs 0xef4a10
  ef4a08:	780f           	moveq #15,%d4
  ef4a0a:	5384           	subql #1,%d4
  ef4a0c:	6ff2           	bles 0xef4a00
  ef4a0e:	60fa           	bras 0xef4a0a
  ef4a10:	1947 0001      	moveb %d7,%a4@(1)
  ef4a14:	4214           	clrb %a4@
  ef4a16:	422c 0003      	clrb %a4@(3)
  ef4a1a:	2015           	movel %a5@,%d0
  ef4a1c:	7203           	moveq #3,%d1
  ef4a1e:	c081           	andl %d1,%d0
  ef4a20:	5880           	addql #4,%d0
  ef4a22:	7201           	moveq #1,%d1
  ef4a24:	e1a1           	asll %d0,%d1
  ef4a26:	7000           	moveq #0,%d0
  ef4a28:	302e fffe      	movew %fp@(-2),%d0
  ef4a2c:	e088           	lsrl #8,%d0
  ef4a2e:	0280 0000 000f 	andil #15,%d0
  ef4a34:	8280           	orl %d0,%d1
  ef4a36:	1941 0002      	moveb %d1,%a4@(2)
  ef4a3a:	196e ffff 0005 	moveb %fp@(-1),%a4@(5)
  ef4a40:	196e fffd 0004 	moveb %fp@(-3),%a4@(4)
  ef4a46:	7201           	moveq #1,%d1
  ef4a48:	1941 0007      	moveb %d1,%a4@(7)
  ef4a4c:	422c 0006      	clrb %a4@(6)
  ef4a50:	7202           	moveq #2,%d1
  ef4a52:	1941 0009      	moveb %d1,%a4@(9)
  ef4a56:	422c 0008      	clrb %a4@(8)
  ef4a5a:	196e fffb 000b 	moveb %fp@(-5),%a4@(11)
  ef4a60:	200b           	movel %a3,%d0
  ef4a62:	1940 000a      	moveb %d0,%a4@(10)
  ef4a66:	7210           	moveq #16,%d1
  ef4a68:	1941 000d      	moveb %d1,%a4@(13)
  ef4a6c:	7220           	moveq #32,%d1
  ef4a6e:	1681           	moveb %d1,%a3@
  ef4a70:	7201           	moveq #1,%d1
  ef4a72:	1741 0003      	moveb %d1,%a3@(3)
  ef4a76:	422b 0002      	clrb %a3@(2)
  ef4a7a:	1741 0001      	moveb %d1,%a3@(1)
  ef4a7e:	4a14           	tstb %a4@
  ef4a80:	6706           	beqs 0xef4a88
  ef4a82:	0c14 0081      	cmpib #-127,%a4@
  ef4a86:	6608           	bnes 0xef4a90
  ef4a88:	780f           	moveq #15,%d4
  ef4a8a:	5384           	subql #1,%d4
  ef4a8c:	6ff0           	bles 0xef4a7e
  ef4a8e:	60fa           	bras 0xef4a8a
  ef4a90:	7000           	moveq #0,%d0
  ef4a92:	1014           	moveb %a4@,%d0
  ef4a94:	2d40 fff6      	movel %d0,%fp@(-10)
  ef4a98:	7000           	moveq #0,%d0
  ef4a9a:	102c 0003      	moveb %a4@(3),%d0
  ef4a9e:	2d40 fff2      	movel %d0,%fp@(-14)
  ef4aa2:	082b 0000 0001 	btst #0,%a3@(1)
  ef4aa8:	6708           	beqs 0xef4ab2
  ef4aaa:	780f           	moveq #15,%d4
  ef4aac:	5384           	subql #1,%d4
  ef4aae:	6ff2           	bles 0xef4aa2
  ef4ab0:	60fa           	bras 0xef4aac
  ef4ab2:	7202           	moveq #2,%d1
  ef4ab4:	1741 0001      	moveb %d1,%a3@(1)
  ef4ab8:	0cae 0000 0080 	cmpil #128,%fp@(-10)
  ef4abe:	fff6 
  ef4ac0:	6742           	beqs 0xef4b04
  ef4ac2:	2f2e fff2      	movel %fp@(-14),%sp@-
  ef4ac6:	4879 00ef 7db4 	pea 0xef7db4
  ef4acc:	4eba d58e      	jsr %pc@(0xef205c)
  ef4ad0:	504f           	addqw #8,%sp
  ef4ad2:	0c87 0000 0089 	cmpil #137,%d7
  ef4ad8:	6716           	beqs 0xef4af0
  ef4ada:	42a7           	clrl %sp@-
  ef4adc:	42a7           	clrl %sp@-
  ef4ade:	4855           	pea %a5@
  ef4ae0:	4878 0089      	pea 0x89
  ef4ae4:	6100 fe8c      	bsrw 0xef4972
  ef4ae8:	4fef 0010      	lea %sp@(16),%sp
  ef4aec:	4a80           	tstl %d0
  ef4aee:	6610           	bnes 0xef4b00
  ef4af0:	52ae ffee      	addql #1,%fp@(-18)
  ef4af4:	0cae 0000 000a 	cmpil #10,%fp@(-18)
  ef4afa:	ffee 
  ef4afc:	6d00 ff02      	bltw 0xef4a00
  ef4b00:	70ff           	moveq #-1,%d0
  ef4b02:	6026           	bras 0xef4b2a
  ef4b04:	0c87 0000 0081 	cmpil #129,%d7
  ef4b0a:	661c           	bnes 0xef4b28
  ef4b0c:	202e 0014      	movel %fp@(20),%d0
  ef4b10:	b08a           	cmpl %a2,%d0
  ef4b12:	6714           	beqs 0xef4b28
  ef4b14:	7a00           	moveq #0,%d5
  ef4b16:	206e 0014      	moveal %fp@(20),%a0
  ef4b1a:	109a           	moveb %a2@+,%a0@
  ef4b1c:	52ae 0014      	addql #1,%fp@(20)
  ef4b20:	5245           	addqw #1,%d5
  ef4b22:	0c45 0200      	cmpiw #512,%d5
  ef4b26:	65ee           	bcss 0xef4b16
  ef4b28:	7000           	moveq #0,%d0
  ef4b2a:	4cee 3cf4 ffc8 	moveml %fp@(-56),%d2/%d4-%d7/%a2-%a5
  ef4b30:	4e5e           	unlk %fp
  ef4b32:	4e75           	rts
  ef4b34:	4e56 ffe0      	linkw %fp,#-32
  ef4b38:	48d7 38f0      	moveml %d4-%d7/%a3-%a5,%sp@
  ef4b3c:	206e 0008      	moveal %fp@(8),%a0
  ef4b40:	2028 008a      	movel %a0@(138),%d0
  ef4b44:	7c03           	moveq #3,%d6
  ef4b46:	c086           	andl %d6,%d0
  ef4b48:	2c00           	movel %d0,%d6
  ef4b4a:	2d68 0086 fffc 	movel %a0@(134),%fp@(-4)
  ef4b50:	0cae 0000 0002 	cmpil #2,%fp@(-4)
  ef4b56:	fffc 
  ef4b58:	6c12           	bges 0xef4b6c
  ef4b5a:	202e fffc      	movel %fp@(-4),%d0
  ef4b5e:	e580           	asll #2,%d0
  ef4b60:	2040           	moveal %d0,%a0
  ef4b62:	d1fc 00ef 7dc4 	addal #15695300,%a0
  ef4b68:	2d50 fffc      	movel %a0@,%fp@(-4)
  ef4b6c:	202e fffc      	movel %fp@(-4),%d0
  ef4b70:	0680 00eb 0000 	addil #15400960,%d0
  ef4b76:	2840           	moveal %d0,%a4
  ef4b78:	4878 0001      	pea 0x1
  ef4b7c:	4854           	pea %a4@
  ef4b7e:	4eba e182      	jsr %pc@(0xef2d02)
  ef4b82:	504f           	addqw #8,%sp
  ef4b84:	4a80           	tstl %d0
  ef4b86:	6716           	beqs 0xef4b9e
  ef4b88:	2f2e fffc      	movel %fp@(-4),%sp@-
  ef4b8c:	4879 00ef 7586 	pea 0xef7586
  ef4b92:	4eba d4c8      	jsr %pc@(0xef205c)
  ef4b96:	504f           	addqw #8,%sp
  ef4b98:	70ff           	moveq #-1,%d0
  ef4b9a:	6000 00aa      	braw 0xef4c46
  ef4b9e:	4854           	pea %a4@
  ef4ba0:	6100 00ae      	bsrw 0xef4c50
  ef4ba4:	584f           	addqw #4,%sp
  ef4ba6:	4a80           	tstl %d0
  ef4ba8:	6612           	bnes 0xef4bbc
  ef4baa:	4879 00ef 7ddc 	pea 0xef7ddc
  ef4bb0:	4eba d4aa      	jsr %pc@(0xef205c)
  ef4bb4:	584f           	addqw #4,%sp
  ef4bb6:	70ff           	moveq #-1,%d0
  ef4bb8:	6000 008c      	braw 0xef4c46
  ef4bbc:	4878 0028      	pea 0x28
  ef4bc0:	2f06           	movel %d6,%sp@-
  ef4bc2:	4854           	pea %a4@
  ef4bc4:	6100 0204      	bsrw 0xef4dca
  ef4bc8:	4fef 000c      	lea %sp@(12),%sp
  ef4bcc:	4a80           	tstl %d0
  ef4bce:	666c           	bnes 0xef4c3c
  ef4bd0:	267c 00f0 1112 	moveal #15733010,%a3
  ef4bd6:	082b 0006 0011 	btst #6,%a3@(17)
  ef4bdc:	6708           	beqs 0xef4be6
  ef4bde:	082b 0003 0011 	btst #3,%a3@(17)
  ef4be4:	6610           	bnes 0xef4bf6
  ef4be6:	4879 00ef 7e00 	pea 0xef7e00
  ef4bec:	4eba d46e      	jsr %pc@(0xef205c)
  ef4bf0:	584f           	addqw #4,%sp
  ef4bf2:	70ff           	moveq #-1,%d0
  ef4bf4:	6050           	bras 0xef4c46
  ef4bf6:	4878 0034      	pea 0x34
  ef4bfa:	2f06           	movel %d6,%sp@-
  ef4bfc:	4854           	pea %a4@
  ef4bfe:	6100 01ca      	bsrw 0xef4dca
  ef4c02:	4fef 000c      	lea %sp@(12),%sp
  ef4c06:	4a80           	tstl %d0
  ef4c08:	6632           	bnes 0xef4c3c
  ef4c0a:	2a7c 0000 4000 	moveal #16384,%a5
  ef4c10:	2f06           	movel %d6,%sp@-
  ef4c12:	4854           	pea %a4@
  ef4c14:	6100 00fe      	bsrw 0xef4d14
  ef4c18:	504f           	addqw #8,%sp
  ef4c1a:	2e00           	movel %d0,%d7
  ef4c1c:	6f1a           	bles 0xef4c38
  ef4c1e:	267c 00f0 2000 	moveal #15736832,%a3
  ef4c24:	2007           	movel %d7,%d0
  ef4c26:	5280           	addql #1,%d0
  ef4c28:	e280           	asrl #1,%d0
  ef4c2a:	2a00           	movel %d0,%d5
  ef4c2c:	5385           	subql #1,%d5
  ef4c2e:	6de0           	blts 0xef4c10
  ef4c30:	181b           	moveb %a3@+,%d4
  ef4c32:	1adb           	moveb %a3@+,%a5@+
  ef4c34:	1ac4           	moveb %d4,%a5@+
  ef4c36:	60f4           	bras 0xef4c2c
  ef4c38:	4a87           	tstl %d7
  ef4c3a:	6c04           	bges 0xef4c40
  ef4c3c:	70ff           	moveq #-1,%d0
  ef4c3e:	6006           	bras 0xef4c46
  ef4c40:	203c 0000 4000 	movel #16384,%d0
  ef4c46:	4cee 38f0 ffe0 	moveml %fp@(-32),%d4-%d7/%a3-%a5
  ef4c4c:	4e5e           	unlk %fp
  ef4c4e:	4e75           	rts
  ef4c50:	4e56 fff0      	linkw %fp,#-16
  ef4c54:	48d7 3880      	moveml %d7/%a3-%a5,%sp@
  ef4c58:	2a6e 0008      	moveal %fp@(8),%a5
  ef4c5c:	287c 00f0 1100 	moveal #15732992,%a4
  ef4c62:	4878 0028      	pea 0x28
  ef4c66:	4854           	pea %a4@
  ef4c68:	4eba df1e      	jsr %pc@(0xef2b88)
  ef4c6c:	504f           	addqw #8,%sp
  ef4c6e:	7e01           	moveq #1,%d7
  ef4c70:	1a87           	moveb %d7,%a5@
  ef4c72:	1947 0006      	moveb %d7,%a4@(6)
  ef4c76:	196c 0006 0007 	moveb %a4@(6),%a4@(7)
  ef4c7c:	486c 0008      	pea %a4@(8)
  ef4c80:	4854           	pea %a4@
  ef4c82:	6100 01d8      	bsrw 0xef4e5c
  ef4c86:	504f           	addqw #8,%sp
  ef4c88:	7e03           	moveq #3,%d7
  ef4c8a:	1887           	moveb %d7,%a4@
  ef4c8c:	1954 0001      	moveb %a4@,%a4@(1)
  ef4c90:	486c 0002      	pea %a4@(2)
  ef4c94:	486c 000c      	pea %a4@(12)
  ef4c98:	6100 01c2      	bsrw 0xef4e5c
  ef4c9c:	504f           	addqw #8,%sp
  ef4c9e:	197c 00ff 000c 	moveb #-1,%a4@(12)
  ef4ca4:	7e01           	moveq #1,%d7
  ef4ca6:	1b47 0001      	moveb %d7,%a5@(1)
  ef4caa:	2e3c 0001 86a0 	movel #100000,%d7
  ef4cb0:	4a2c 000c      	tstb %a4@(12)
  ef4cb4:	6708           	beqs 0xef4cbe
  ef4cb6:	5387           	subql #1,%d7
  ef4cb8:	6ef6           	bgts 0xef4cb0
  ef4cba:	7000           	moveq #0,%d0
  ef4cbc:	604c           	bras 0xef4d0a
  ef4cbe:	7211           	moveq #17,%d1
  ef4cc0:	1941 000d      	moveb %d1,%a4@(13)
  ef4cc4:	47ec 0012      	lea %a4@(18),%a3
  ef4cc8:	486c 000e      	pea %a4@(14)
  ef4ccc:	4853           	pea %a3@
  ef4cce:	6100 018c      	bsrw 0xef4e5c
  ef4cd2:	504f           	addqw #8,%sp
  ef4cd4:	4878 0016      	pea 0x16
  ef4cd8:	4853           	pea %a3@
  ef4cda:	4eba deac      	jsr %pc@(0xef2b88)
  ef4cde:	504f           	addqw #8,%sp
  ef4ce0:	4253           	clrw %a3@
  ef4ce2:	426b 0002      	clrw %a3@(2)
  ef4ce6:	08eb 0007 0004 	bset #7,%a3@(4)
  ef4cec:	4a2c 000c      	tstb %a4@(12)
  ef4cf0:	66fa           	bnes 0xef4cec
  ef4cf2:	13fc 00ff 00f0 	moveb #-1,0xf0110c
  ef4cf8:	110c 
  ef4cfa:	7201           	moveq #1,%d1
  ef4cfc:	1b41 0001      	moveb %d1,%a5@(1)
  ef4d00:	4a39 00f0 110c 	tstb 0xf0110c
  ef4d06:	66f8           	bnes 0xef4d00
  ef4d08:	7001           	moveq #1,%d0
  ef4d0a:	4cee 3880 fff0 	moveml %fp@(-16),%d7/%a3-%a5
  ef4d10:	4e5e           	unlk %fp
  ef4d12:	4e75           	rts
  ef4d14:	4e56 fffc      	linkw %fp,#-4
  ef4d18:	2e8d           	movel %a5,%sp@
  ef4d1a:	2a7c 00f0 1112 	moveal #15733010,%a5
  ef4d20:	4878 0016      	pea 0x16
  ef4d24:	4855           	pea %a5@
  ef4d26:	4eba de60      	jsr %pc@(0xef2b88)
  ef4d2a:	504f           	addqw #8,%sp
  ef4d2c:	722c           	moveq #44,%d1
  ef4d2e:	3a81           	movew %d1,%a5@
  ef4d30:	08ed 0007 0004 	bset #7,%a5@(4)
  ef4d36:	202e 000c      	movel %fp@(12),%d0
  ef4d3a:	72f3           	moveq #-13,%d1
  ef4d3c:	c32d 0005      	andb %d1,%a5@(5)
  ef4d40:	7203           	moveq #3,%d1
  ef4d42:	c001           	andb %d1,%d0
  ef4d44:	e588           	lsll #2,%d0
  ef4d46:	812d 0005      	orb %d0,%a5@(5)
  ef4d4a:	3b7c 5000 0008 	movew #20480,%a5@(8)
  ef4d50:	486d 000c      	pea %a5@(12)
  ef4d54:	4878 2000      	pea 0x2000
  ef4d58:	6100 0102      	bsrw 0xef4e5c
  ef4d5c:	504f           	addqw #8,%sp
  ef4d5e:	13fc 00ff 00f0 	moveb #-1,0xf0110c
  ef4d64:	110c 
  ef4d66:	206e 0008      	moveal %fp@(8),%a0
  ef4d6a:	7201           	moveq #1,%d1
  ef4d6c:	1141 0001      	moveb %d1,%a0@(1)
  ef4d70:	4a39 00f0 110c 	tstb 0xf0110c
  ef4d76:	66f8           	bnes 0xef4d70
  ef4d78:	102d 0010      	moveb %a5@(16),%d0
  ef4d7c:	721f           	moveq #31,%d1
  ef4d7e:	c001           	andb %d1,%d0
  ef4d80:	7215           	moveq #21,%d1
  ef4d82:	b001           	cmpb %d1,%d0
  ef4d84:	6604           	bnes 0xef4d8a
  ef4d86:	7000           	moveq #0,%d0
  ef4d88:	6038           	bras 0xef4dc2
  ef4d8a:	102d 0010      	moveb %a5@(16),%d0
  ef4d8e:	721f           	moveq #31,%d1
  ef4d90:	c001           	andb %d1,%d0
  ef4d92:	720f           	moveq #15,%d1
  ef4d94:	b001           	cmpb %d1,%d0
  ef4d96:	6724           	beqs 0xef4dbc
  ef4d98:	102d 0010      	moveb %a5@(16),%d0
  ef4d9c:	721f           	moveq #31,%d1
  ef4d9e:	c001           	andb %d1,%d0
  ef4da0:	671a           	beqs 0xef4dbc
  ef4da2:	7000           	moveq #0,%d0
  ef4da4:	102d 0010      	moveb %a5@(16),%d0
  ef4da8:	c001           	andb %d1,%d0
  ef4daa:	2f00           	movel %d0,%sp@-
  ef4dac:	4879 00ef 7dcc 	pea 0xef7dcc
  ef4db2:	4eba d2a8      	jsr %pc@(0xef205c)
  ef4db6:	504f           	addqw #8,%sp
  ef4db8:	70ff           	moveq #-1,%d0
  ef4dba:	6006           	bras 0xef4dc2
  ef4dbc:	7000           	moveq #0,%d0
  ef4dbe:	302d 000a      	movew %a5@(10),%d0
  ef4dc2:	2a6e fffc      	moveal %fp@(-4),%a5
  ef4dc6:	4e5e           	unlk %fp
  ef4dc8:	4e75           	rts
  ef4dca:	4e56 fff8      	linkw %fp,#-8
  ef4dce:	48d7 3000      	moveml %a4-%a5,%sp@
  ef4dd2:	2a7c 00f0 1100 	moveal #15732992,%a5
  ef4dd8:	49ed 0012      	lea %a5@(18),%a4
  ef4ddc:	4878 0016      	pea 0x16
  ef4de0:	4854           	pea %a4@
  ef4de2:	4eba dda4      	jsr %pc@(0xef2b88)
  ef4de6:	504f           	addqw #8,%sp
  ef4de8:	38ae 0012      	movew %fp@(18),%a4@
  ef4dec:	08ec 0007 0004 	bset #7,%a4@(4)
  ef4df2:	202e 000c      	movel %fp@(12),%d0
  ef4df6:	72f3           	moveq #-13,%d1
  ef4df8:	c32c 0005      	andb %d1,%a4@(5)
  ef4dfc:	7203           	moveq #3,%d1
  ef4dfe:	c001           	andb %d1,%d0
  ef4e00:	e588           	lsll #2,%d0
  ef4e02:	812c 0005      	orb %d0,%a4@(5)
  ef4e06:	13fc 00ff 00f0 	moveb #-1,0xf0110c
  ef4e0c:	110c 
  ef4e0e:	206e 0008      	moveal %fp@(8),%a0
  ef4e12:	7201           	moveq #1,%d1
  ef4e14:	1141 0001      	moveb %d1,%a0@(1)
  ef4e18:	4a39 00f0 110c 	tstb 0xf0110c
  ef4e1e:	66f8           	bnes 0xef4e18
  ef4e20:	7000           	moveq #0,%d0
  ef4e22:	102c 0010      	moveb %a4@(16),%d0
  ef4e26:	721f           	moveq #31,%d1
  ef4e28:	c001           	andb %d1,%d0
  ef4e2a:	4a80           	tstl %d0
  ef4e2c:	6722           	beqs 0xef4e50
  ef4e2e:	7215           	moveq #21,%d1
  ef4e30:	b081           	cmpl %d1,%d0
  ef4e32:	671c           	beqs 0xef4e50
  ef4e34:	7000           	moveq #0,%d0
  ef4e36:	102c 0010      	moveb %a4@(16),%d0
  ef4e3a:	721f           	moveq #31,%d1
  ef4e3c:	c001           	andb %d1,%d0
  ef4e3e:	2f00           	movel %d0,%sp@-
  ef4e40:	4879 00ef 7dcc 	pea 0xef7dcc
  ef4e46:	4eba d214      	jsr %pc@(0xef205c)
  ef4e4a:	504f           	addqw #8,%sp
  ef4e4c:	7001           	moveq #1,%d0
  ef4e4e:	6002           	bras 0xef4e52
  ef4e50:	7000           	moveq #0,%d0
  ef4e52:	4cee 3000 fff8 	moveml %fp@(-8),%a4-%a5
  ef4e58:	4e5e           	unlk %fp
  ef4e5a:	4e75           	rts
  ef4e5c:	4e56 0000      	linkw %fp,#0
  ef4e60:	206e 000c      	moveal %fp@(12),%a0
  ef4e64:	302e 000a      	movew %fp@(10),%d0
  ef4e68:	0280 0000 ffff 	andil #65535,%d0
  ef4e6e:	3080           	movew %d0,%a0@
  ef4e70:	206e 000c      	moveal %fp@(12),%a0
  ef4e74:	202e 0008      	movel %fp@(8),%d0
  ef4e78:	0280 000f 0000 	andil #983040,%d0
  ef4e7e:	e880           	asrl #4,%d0
  ef4e80:	3140 0002      	movew %d0,%a0@(2)
  ef4e84:	4e5e           	unlk %fp
  ef4e86:	4e75           	rts
  ef4e88:	4e56 fff0      	linkw %fp,#-16
  ef4e8c:	2e8d           	movel %a5,%sp@
  ef4e8e:	2a6e 0008      	moveal %fp@(8),%a5
  ef4e92:	2d6d 0026 fffc 	movel %a5@(38),%fp@(-4)
  ef4e98:	2d6d 001e fff8 	movel %a5@(30),%fp@(-8)
  ef4e9e:	2d6d 0022 fff4 	movel %a5@(34),%fp@(-12)
  ef4ea4:	0cae 0000 0002 	cmpil #2,%fp@(12)
  ef4eaa:	000c 
  ef4eac:	6732           	beqs 0xef4ee0
  ef4eae:	4aae fffc      	tstl %fp@(-4)
  ef4eb2:	6f2c           	bles 0xef4ee0
  ef4eb4:	2f2e fff4      	movel %fp@(-12),%sp@-
  ef4eb8:	2f2e fff8      	movel %fp@(-8),%sp@-
  ef4ebc:	4855           	pea %a5@
  ef4ebe:	6100 0388      	bsrw 0xef5248
  ef4ec2:	4fef 000c      	lea %sp@(12),%sp
  ef4ec6:	4a80           	tstl %d0
  ef4ec8:	6616           	bnes 0xef4ee0
  ef4eca:	52ae fff8      	addql #1,%fp@(-8)
  ef4ece:	06ae 0000 0200 	addil #512,%fp@(-12)
  ef4ed4:	fff4 
  ef4ed6:	04ae 0000 0200 	subil #512,%fp@(-4)
  ef4edc:	fffc 
  ef4ede:	60ce           	bras 0xef4eae
  ef4ee0:	202d 0026      	movel %a5@(38),%d0
  ef4ee4:	90ae fffc      	subl %fp@(-4),%d0
  ef4ee8:	2a6e fff0      	moveal %fp@(-16),%a5
  ef4eec:	4e5e           	unlk %fp
  ef4eee:	4e75           	rts
  ef4ef0:	4e56 ffdc      	linkw %fp,#-36
  ef4ef4:	2e8d           	movel %a5,%sp@
  ef4ef6:	2a7c 0000 3000 	moveal #12288,%a5
  ef4efc:	4878 0a8e      	pea 0xa8e
  ef4f00:	4855           	pea %a5@
  ef4f02:	4eba dc84      	jsr %pc@(0xef2b88)
  ef4f06:	504f           	addqw #8,%sp
  ef4f08:	486e ffe0      	pea %fp@(-32)
  ef4f0c:	4878 0001      	pea 0x1
  ef4f10:	4eba cafa      	jsr %pc@(0xef1a0c)
  ef4f14:	504f           	addqw #8,%sp
  ef4f16:	7201           	moveq #1,%d1
  ef4f18:	b081           	cmpl %d1,%d0
  ef4f1a:	660c           	bnes 0xef4f28
  ef4f1c:	42a7           	clrl %sp@-
  ef4f1e:	486e ffe2      	pea %fp@(-30)
  ef4f22:	6100 044a      	bsrw 0xef536e
  ef4f26:	504f           	addqw #8,%sp
  ef4f28:	2a6e ffdc      	moveal %fp@(-36),%a5
  ef4f2c:	4e5e           	unlk %fp
  ef4f2e:	4e75           	rts
  ef4f30:	4e56 fdfc      	linkw %fp,#-516
  ef4f34:	2e8d           	movel %a5,%sp@
  ef4f36:	2a7c 0000 3000 	moveal #12288,%a5
  ef4f3c:	72f6           	moveq #-10,%d1
  ef4f3e:	2b41 0042      	movel %d1,%a5@(66)
  ef4f42:	2079 00ef 009c 	moveal 0xef009c,%a0
  ef4f48:	2a90           	movel %a0@,%a5@
  ef4f4a:	41f9 00ef 7e14 	lea 0xef7e14,%a0
  ef4f50:	3b68 0004 0008 	movew %a0@(4),%a5@(8)
  ef4f56:	2b50 0004      	movel %a0@,%a5@(4)
  ef4f5a:	206e 0008      	moveal %fp@(8),%a0
  ef4f5e:	2b68 000e 0022 	movel %a0@(14),%a5@(34)
  ef4f64:	486d 000a      	pea %a5@(10)
  ef4f68:	42a7           	clrl %sp@-
  ef4f6a:	6100 0402      	bsrw 0xef536e
  ef4f6e:	504f           	addqw #8,%sp
  ef4f70:	4878 0003      	pea 0x3
  ef4f74:	486d 001f      	pea %a5@(31)
  ef4f78:	486d 000d      	pea %a5@(13)
  ef4f7c:	4eba dc30      	jsr %pc@(0xef2bae)
  ef4f80:	4fef 000c      	lea %sp@(12),%sp
  ef4f84:	3b7c 0800 0010 	movew #2048,%a5@(16)
  ef4f8a:	022d ff0f 0012 	andib #15,%a5@(18)
  ef4f90:	7240           	moveq #64,%d1
  ef4f92:	832d 0012      	orb %d1,%a5@(18)
  ef4f96:	72f0           	moveq #-16,%d1
  ef4f98:	c32d 0012      	andb %d1,%a5@(18)
  ef4f9c:	7205           	moveq #5,%d1
  ef4f9e:	832d 0012      	orb %d1,%a5@(18)
  ef4fa2:	7230           	moveq #48,%d1
  ef4fa4:	3b41 0014      	movew %d1,%a5@(20)
  ef4fa8:	7204           	moveq #4,%d1
  ef4faa:	1b41 001a      	moveb %d1,%a5@(26)
  ef4fae:	724d           	moveq #77,%d1
  ef4fb0:	1b41 001b      	moveb %d1,%a5@(27)
  ef4fb4:	7209           	moveq #9,%d1
  ef4fb6:	1b41 0026      	moveb %d1,%a5@(38)
  ef4fba:	206e 0008      	moveal %fp@(8),%a0
  ef4fbe:	2028 0012      	movel %a0@(18),%d0
  ef4fc2:	0a80 0000 0040 	eoril #64,%d0
  ef4fc8:	1b40 0027      	moveb %d0,%a5@(39)
  ef4fcc:	2b7c 0000 0400 	movel #1024,%a5@(50)
  ef4fd2:	0032 
  ef4fd4:	486e fe00      	pea %fp@(-512)
  ef4fd8:	42a7           	clrl %sp@-
  ef4fda:	2f2e 0008      	movel %fp@(8),%sp@-
  ef4fde:	6100 0268      	bsrw 0xef5248
  ef4fe2:	4fef 000c      	lea %sp@(12),%sp
  ef4fe6:	4a80           	tstl %d0
  ef4fe8:	6704           	beqs 0xef4fee
  ef4fea:	70ff           	moveq #-1,%d0
  ef4fec:	6002           	bras 0xef4ff0
  ef4fee:	7000           	moveq #0,%d0
  ef4ff0:	2a6e fdfc      	moveal %fp@(-516),%a5
  ef4ff4:	4e5e           	unlk %fp
  ef4ff6:	4e75           	rts
  ef4ff8:	4e56 fff8      	linkw %fp,#-8
  ef4ffc:	2e8d           	movel %a5,%sp@
  ef4ffe:	2a7c 0000 3000 	moveal #12288,%a5
  ef5004:	4878 003e      	pea 0x3e
  ef5008:	486d 0004      	pea %a5@(4)
  ef500c:	206e 0008      	moveal %fp@(8),%a0
  ef5010:	2f28 0006      	movel %a0@(6),%sp@-
  ef5014:	2068 002a      	moveal %a0@(42),%a0
  ef5018:	2050           	moveal %a0@,%a0
  ef501a:	4e90           	jsr %a0@
  ef501c:	4fef 000c      	lea %sp@(12),%sp
  ef5020:	2d40 fffc      	movel %d0,%fp@(-4)
  ef5024:	670c           	beqs 0xef5032
  ef5026:	4879 00ef 7e1c 	pea 0xef7e1c
  ef502c:	4eba d02e      	jsr %pc@(0xef205c)
  ef5030:	584f           	addqw #4,%sp
  ef5032:	2a6e fff8      	moveal %fp@(-8),%a5
  ef5036:	4e5e           	unlk %fp
  ef5038:	4e75           	rts
  ef503a:	4e56 ffe0      	linkw %fp,#-32
  ef503e:	48d7 3800      	moveml %a3-%a5,%sp@
  ef5042:	2a7c 0000 3000 	moveal #12288,%a5
  ef5048:	2079 00ef 009c 	moveal 0xef009c,%a0
  ef504e:	2010           	movel %a0@,%d0
  ef5050:	0680 0000 07d0 	addil #2000,%d0
  ef5056:	2d40 fffc      	movel %d0,%fp@(-4)
  ef505a:	2079 00ef 009c 	moveal 0xef009c,%a0
  ef5060:	2010           	movel %a0@,%d0
  ef5062:	b0ae fffc      	cmpl %fp@(-4),%d0
  ef5066:	6f1a           	bles 0xef5082
  ef5068:	206e 0008      	moveal %fp@(8),%a0
  ef506c:	2f28 0006      	movel %a0@(6),%sp@-
  ef5070:	2068 002a      	moveal %a0@(42),%a0
  ef5074:	2068 0008      	moveal %a0@(8),%a0
  ef5078:	4e90           	jsr %a0@
  ef507a:	584f           	addqw #4,%sp
  ef507c:	70ff           	moveq #-1,%d0
  ef507e:	6000 017a      	braw 0xef51fa
  ef5082:	486d 0446      	pea %a5@(1094)
  ef5086:	206e 0008      	moveal %fp@(8),%a0
  ef508a:	2f28 0006      	movel %a0@(6),%sp@-
  ef508e:	2068 002a      	moveal %a0@(42),%a0
  ef5092:	2068 0004      	moveal %a0@(4),%a0
  ef5096:	4e90           	jsr %a0@
  ef5098:	504f           	addqw #8,%sp
  ef509a:	3d40 fffa      	movew %d0,%fp@(-6)
  ef509e:	0c6e 003e fffa 	cmpiw #62,%fp@(-6)
  ef50a4:	6db4           	blts 0xef505a
  ef50a6:	47ed 0446      	lea %a5@(1094),%a3
  ef50aa:	4878 0006      	pea 0x6
  ef50ae:	4879 00ef 7e14 	pea 0xef7e14
  ef50b4:	4853           	pea %a3@
  ef50b6:	4eba 1a58      	jsr %pc@(0xef6b10)
  ef50ba:	4fef 000c      	lea %sp@(12),%sp
  ef50be:	4a80           	tstl %d0
  ef50c0:	6798           	beqs 0xef505a
  ef50c2:	0c6b 1002 000c 	cmpiw #4098,%a3@(12)
  ef50c8:	6624           	bnes 0xef50ee
  ef50ca:	41eb 000e      	lea %a3@(14),%a0
  ef50ce:	2d48 fff2      	movel %a0,%fp@(-14)
  ef50d2:	2008           	movel %a0,%d0
  ef50d4:	0680 0000 0400 	addil #1024,%d0
  ef50da:	2d40 fff6      	movel %d0,%fp@(-10)
  ef50de:	2040           	moveal %d0,%a0
  ef50e0:	3750 000c      	movew %a0@,%a3@(12)
  ef50e4:	202e fff6      	movel %fp@(-10),%d0
  ef50e8:	5880           	addql #4,%d0
  ef50ea:	2840           	moveal %d0,%a4
  ef50ec:	600c           	bras 0xef50fa
  ef50ee:	49eb 000e      	lea %a3@(14),%a4
  ef50f2:	41ec 0030      	lea %a4@(48),%a0
  ef50f6:	2d48 fff2      	movel %a0,%fp@(-14)
  ef50fa:	4aad 0022      	tstl %a5@(34)
  ef50fe:	6720           	beqs 0xef5120
  ef5100:	2f2c 000c      	movel %a4@(12),%sp@-
  ef5104:	6100 00fe      	bsrw 0xef5204
  ef5108:	584f           	addqw #4,%sp
  ef510a:	2d40 ffec      	movel %d0,%fp@(-20)
  ef510e:	2f2d 0022      	movel %a5@(34),%sp@-
  ef5112:	6100 00f0      	bsrw 0xef5204
  ef5116:	584f           	addqw #4,%sp
  ef5118:	b0ae ffec      	cmpl %fp@(-20),%d0
  ef511c:	6600 ff3c      	bnew 0xef505a
  ef5120:	0c6b 0800 000c 	cmpiw #2048,%a3@(12)
  ef5126:	6600 ff32      	bnew 0xef505a
  ef512a:	0c2c 004d 0009 	cmpib #77,%a4@(9)
  ef5130:	6600 ff28      	bnew 0xef505a
  ef5134:	202c 0018      	movel %a4@(24),%d0
  ef5138:	b095           	cmpl %a5@,%d0
  ef513a:	6600 ff1e      	bnew 0xef505a
  ef513e:	0c2c 0003 0014 	cmpib #3,%a4@(20)
  ef5144:	6622           	bnes 0xef5168
  ef5146:	2f2c 001c      	movel %a4@(28),%sp@-
  ef514a:	102c 0016      	moveb %a4@(22),%d0
  ef514e:	4880           	extw %d0
  ef5150:	48c0           	extl %d0
  ef5152:	2f00           	movel %d0,%sp@-
  ef5154:	4879 00ef 7e1f 	pea 0xef7e1f
  ef515a:	4eba cf00      	jsr %pc@(0xef205c)
  ef515e:	4fef 000c      	lea %sp@(12),%sp
  ef5162:	7000           	moveq #0,%d0
  ef5164:	6000 0094      	braw 0xef51fa
  ef5168:	0c2c 0019 0014 	cmpib #25,%a4@(20)
  ef516e:	6612           	bnes 0xef5182
  ef5170:	0cac 0000 0400 	cmpil #1024,%a4@(44)
  ef5176:	002c 
  ef5178:	6608           	bnes 0xef5182
  ef517a:	0c6c 0430 0002 	cmpiw #1072,%a4@(2)
  ef5180:	6704           	beqs 0xef5186
  ef5182:	70ff           	moveq #-1,%d0
  ef5184:	6074           	bras 0xef51fa
  ef5186:	4878 0006      	pea 0x6
  ef518a:	4879 00ef 7e14 	pea 0xef7e14
  ef5190:	486d 0004      	pea %a5@(4)
  ef5194:	4eba 197a      	jsr %pc@(0xef6b10)
  ef5198:	4fef 000c      	lea %sp@(12),%sp
  ef519c:	4a80           	tstl %d0
  ef519e:	661e           	bnes 0xef51be
  ef51a0:	41eb 0006      	lea %a3@(6),%a0
  ef51a4:	3b68 0004 0008 	movew %a0@(4),%a5@(8)
  ef51aa:	2b50 0004      	movel %a0@,%a5@(4)
  ef51ae:	41ec 000c      	lea %a4@(12),%a0
  ef51b2:	2b50 0022      	movel %a0@,%a5@(34)
  ef51b6:	41ec 0010      	lea %a4@(16),%a0
  ef51ba:	2b50 001e      	movel %a0@,%a5@(30)
  ef51be:	2015           	movel %a5@,%d0
  ef51c0:	7207           	moveq #7,%d1
  ef51c2:	c081           	andl %d1,%d0
  ef51c4:	661e           	bnes 0xef51e4
  ef51c6:	2015           	movel %a5@,%d0
  ef51c8:	0800 0003      	btst #3,%d0
  ef51cc:	6708           	beqs 0xef51d6
  ef51ce:	203c 00ef 7e31 	movel #15695409,%d0
  ef51d4:	6006           	bras 0xef51dc
  ef51d6:	203c 00ef 7e34 	movel #15695412,%d0
  ef51dc:	2f00           	movel %d0,%sp@-
  ef51de:	4eba ce7c      	jsr %pc@(0xef205c)
  ef51e2:	584f           	addqw #4,%sp
  ef51e4:	4878 0400      	pea 0x400
  ef51e8:	486d 0046      	pea %a5@(70)
  ef51ec:	2f2e fff2      	movel %fp@(-14),%sp@-
  ef51f0:	4eba d9bc      	jsr %pc@(0xef2bae)
  ef51f4:	4fef 000c      	lea %sp@(12),%sp
  ef51f8:	7001           	moveq #1,%d0
  ef51fa:	4cee 3800 ffe0 	moveml %fp@(-32),%a3-%a5
  ef5200:	4e5e           	unlk %fp
  ef5202:	4e75           	rts
  ef5204:	4e56 fffc      	linkw %fp,#-4
  ef5208:	2e87           	movel %d7,%sp@
  ef520a:	2e2e 0008      	movel %fp@(8),%d7
  ef520e:	0807 001f      	btst #31,%d7
  ef5212:	660a           	bnes 0xef521e
  ef5214:	2007           	movel %d7,%d0
  ef5216:	0280 00ff ffff 	andil #16777215,%d0
  ef521c:	6022           	bras 0xef5240
  ef521e:	2007           	movel %d7,%d0
  ef5220:	0280 c000 0000 	andil #-1073741824,%d0
  ef5226:	0c80 8000 0000 	cmpil #-2147483648,%d0
  ef522c:	660a           	bnes 0xef5238
  ef522e:	3007           	movew %d7,%d0
  ef5230:	0280 0000 ffff 	andil #65535,%d0
  ef5236:	6008           	bras 0xef5240
  ef5238:	1007           	moveb %d7,%d0
  ef523a:	0280 0000 00ff 	andil #255,%d0
  ef5240:	2e2e fffc      	movel %fp@(-4),%d7
  ef5244:	4e5e           	unlk %fp
  ef5246:	4e75           	rts
  ef5248:	4e56 ffec      	linkw %fp,#-20
  ef524c:	2e8d           	movel %a5,%sp@
  ef524e:	2a7c 0000 3000 	moveal #12288,%a5
  ef5254:	2d7c 0000 01f4 	movel #500,%fp@(-16)
  ef525a:	fff0 
  ef525c:	41ed 0046      	lea %a5@(70),%a0
  ef5260:	2d48 fffc      	movel %a0,%fp@(-4)
  ef5264:	202e 000c      	movel %fp@(12),%d0
  ef5268:	b0ad 0042      	cmpl %a5@(66),%d0
  ef526c:	6700 00a2      	beqw 0xef5310
  ef5270:	202d 0042      	movel %a5@(66),%d0
  ef5274:	5280           	addql #1,%d0
  ef5276:	222e 000c      	movel %fp@(12),%d1
  ef527a:	b280           	cmpl %d0,%d1
  ef527c:	660c           	bnes 0xef528a
  ef527e:	06ae 0000 0200 	addil #512,%fp@(-4)
  ef5284:	fffc 
  ef5286:	6000 0088      	braw 0xef5310
  ef528a:	2b6e 000c 002e 	movel %fp@(12),%a5@(46)
  ef5290:	5295           	addql #1,%a5@
  ef5292:	2b55 002a      	movel %a5@,%a5@(42)
  ef5296:	426d 001c      	clrw %a5@(28)
  ef529a:	4878 0014      	pea 0x14
  ef529e:	486d 0012      	pea %a5@(18)
  ef52a2:	6100 008a      	bsrw 0xef532e
  ef52a6:	504f           	addqw #8,%sp
  ef52a8:	3b40 001c      	movew %d0,%a5@(28)
  ef52ac:	42ae fff4      	clrl %fp@(-12)
  ef52b0:	202e fff4      	movel %fp@(-12),%d0
  ef52b4:	b0ae fff0      	cmpl %fp@(-16),%d0
  ef52b8:	6c2c           	bges 0xef52e6
  ef52ba:	2f2e 0008      	movel %fp@(8),%sp@-
  ef52be:	6100 fd38      	bsrw 0xef4ff8
  ef52c2:	584f           	addqw #4,%sp
  ef52c4:	2f2e 0008      	movel %fp@(8),%sp@-
  ef52c8:	6100 fd70      	bsrw 0xef503a
  ef52cc:	584f           	addqw #4,%sp
  ef52ce:	2d40 fff8      	movel %d0,%fp@(-8)
  ef52d2:	6c12           	bges 0xef52e6
  ef52d4:	4879 00ef 7e37 	pea 0xef7e37
  ef52da:	4eba cd80      	jsr %pc@(0xef205c)
  ef52de:	584f           	addqw #4,%sp
  ef52e0:	52ae fff4      	addql #1,%fp@(-12)
  ef52e4:	60ca           	bras 0xef52b0
  ef52e6:	202e fff4      	movel %fp@(-12),%d0
  ef52ea:	b0ae fff0      	cmpl %fp@(-16),%d0
  ef52ee:	6610           	bnes 0xef5300
  ef52f0:	4879 00ef 7e3a 	pea 0xef7e3a
  ef52f6:	4eba cd64      	jsr %pc@(0xef205c)
  ef52fa:	584f           	addqw #4,%sp
  ef52fc:	70ff           	moveq #-1,%d0
  ef52fe:	6026           	bras 0xef5326
  ef5300:	4aae fff8      	tstl %fp@(-8)
  ef5304:	6604           	bnes 0xef530a
  ef5306:	70ff           	moveq #-1,%d0
  ef5308:	601c           	bras 0xef5326
  ef530a:	2b6e 000c 0042 	movel %fp@(12),%a5@(66)
  ef5310:	4878 0200      	pea 0x200
  ef5314:	2f2e 0010      	movel %fp@(16),%sp@-
  ef5318:	2f2e fffc      	movel %fp@(-4),%sp@-
  ef531c:	4eba d890      	jsr %pc@(0xef2bae)
  ef5320:	4fef 000c      	lea %sp@(12),%sp
  ef5324:	7000           	moveq #0,%d0
  ef5326:	2a6e ffec      	moveal %fp@(-20),%a5
  ef532a:	4e5e           	unlk %fp
  ef532c:	4e75           	rts
  ef532e:	4e56 fff0      	linkw %fp,#-16
  ef5332:	48d7 20e0      	moveml %d5-%d7/%a5,%sp@
  ef5336:	3e2e 000e      	movew %fp@(14),%d7
  ef533a:	2a6e 0008      	moveal %fp@(8),%a5
  ef533e:	7c00           	moveq #0,%d6
  ef5340:	2a3c 0001 0000 	movel #65536,%d5
  ef5346:	e24f           	lsrw #1,%d7
  ef5348:	3007           	movew %d7,%d0
  ef534a:	5347           	subqw #1,%d7
  ef534c:	4a40           	tstw %d0
  ef534e:	6710           	beqs 0xef5360
  ef5350:	7000           	moveq #0,%d0
  ef5352:	301d           	movew %a5@+,%d0
  ef5354:	dc80           	addl %d0,%d6
  ef5356:	bc85           	cmpl %d5,%d6
  ef5358:	65ee           	bcss 0xef5348
  ef535a:	9c85           	subl %d5,%d6
  ef535c:	5286           	addql #1,%d6
  ef535e:	60e8           	bras 0xef5348
  ef5360:	2006           	movel %d6,%d0
  ef5362:	4680           	notl %d0
  ef5364:	4cee 20e0 fff0 	moveml %fp@(-16),%d5-%d7/%a5
  ef536a:	4e5e           	unlk %fp
  ef536c:	4e75           	rts
  ef536e:	4e56 fffc      	linkw %fp,#-4
  ef5372:	2e8d           	movel %a5,%sp@
  ef5374:	2a7c 0000 3000 	moveal #12288,%a5
  ef537a:	4a6d 0a86      	tstw %a5@(2694)
  ef537e:	661e           	bnes 0xef539e
  ef5380:	7201           	moveq #1,%d1
  ef5382:	3b41 0a86      	movew %d1,%a5@(2694)
  ef5386:	4aae 0008      	tstl %fp@(8)
  ef538a:	6604           	bnes 0xef5390
  ef538c:	7000           	moveq #0,%d0
  ef538e:	6026           	bras 0xef53b6
  ef5390:	206e 0008      	moveal %fp@(8),%a0
  ef5394:	3b68 0004 0a8c 	movew %a0@(4),%a5@(2700)
  ef539a:	2b50 0a88      	movel %a0@,%a5@(2696)
  ef539e:	4aae 000c      	tstl %fp@(12)
  ef53a2:	6710           	beqs 0xef53b4
  ef53a4:	41ed 0a88      	lea %a5@(2696),%a0
  ef53a8:	226e 000c      	moveal %fp@(12),%a1
  ef53ac:	3368 0004 0004 	movew %a0@(4),%a1@(4)
  ef53b2:	2290           	movel %a0@,%a1@
  ef53b4:	7001           	moveq #1,%d0
  ef53b6:	2a6e fffc      	moveal %fp@(-4),%a5
  ef53ba:	4e5e           	unlk %fp
  ef53bc:	4e75           	rts
  ef53be:	0000 4e56      	orib #86,%d0
  ef53c2:	fff8           	0177770
  ef53c4:	48d7 2080      	moveml %d7/%a5,%sp@
  ef53c8:	7e00           	moveq #0,%d7
  ef53ca:	6008           	bras 0xef53d4
  ef53cc:	5287           	addql #1,%d7
  ef53ce:	7202           	moveq #2,%d1
  ef53d0:	be81           	cmpl %d1,%d7
  ef53d2:	6c4a           	bges 0xef541e
  ef53d4:	2007           	movel %d7,%d0
  ef53d6:	e580           	asll #2,%d0
  ef53d8:	2040           	moveal %d0,%a0
  ef53da:	d1fc 00ef 7e5c 	addal #15695452,%a0
  ef53e0:	2010           	movel %a0@,%d0
  ef53e2:	0680 00eb 0000 	addil #15400960,%d0
  ef53e8:	2a40           	moveal %d0,%a5
  ef53ea:	4878 0067      	pea 0x67
  ef53ee:	4855           	pea %a5@
  ef53f0:	4eba d910      	jsr %pc@(0xef2d02)
  ef53f4:	504f           	addqw #8,%sp
  ef53f6:	4a80           	tstl %d0
  ef53f8:	66d2           	bnes 0xef53cc
  ef53fa:	4878 0089      	pea 0x89
  ef53fe:	486d 0001      	pea %a5@(1)
  ef5402:	4eba d8fe      	jsr %pc@(0xef2d02)
  ef5406:	504f           	addqw #8,%sp
  ef5408:	4a80           	tstl %d0
  ef540a:	66c0           	bnes 0xef53cc
  ef540c:	0c15 0067      	cmpib #103,%a5@
  ef5410:	66ba           	bnes 0xef53cc
  ef5412:	0c2d 0089 0001 	cmpib #-119,%a5@(1)
  ef5418:	66b2           	bnes 0xef53cc
  ef541a:	2007           	movel %d7,%d0
  ef541c:	6002           	bras 0xef5420
  ef541e:	70ff           	moveq #-1,%d0
  ef5420:	4cee 2080 fff8 	moveml %fp@(-8),%d7/%a5
  ef5426:	4e5e           	unlk %fp
  ef5428:	4e75           	rts
  ef542a:	4e56 ffc8      	linkw %fp,#-56
  ef542e:	48d7 3ce0      	moveml %d5-%d7/%a2-%a5,%sp@
  ef5432:	2a6e 0008      	moveal %fp@(8),%a5
  ef5436:	267c 00f0 0100 	moveal #15728896,%a3
  ef543c:	41ee ffee      	lea %fp@(-18),%a0
  ef5440:	2d48 ffea      	movel %a0,%fp@(-22)
  ef5444:	202d 008a      	movel %a5@(138),%d0
  ef5448:	7203           	moveq #3,%d1
  ef544a:	c081           	andl %d1,%d0
  ef544c:	1080           	moveb %d0,%a0@
  ef544e:	202d 008a      	movel %a5@(138),%d0
  ef5452:	e480           	asrl #2,%d0
  ef5454:	7201           	moveq #1,%d1
  ef5456:	c081           	andl %d1,%d0
  ef5458:	3d40 fffe      	movew %d0,%fp@(-2)
  ef545c:	2d6d 0086 ffe4 	movel %a5@(134),%fp@(-28)
  ef5462:	0cae 0000 0002 	cmpil #2,%fp@(-28)
  ef5468:	ffe4 
  ef546a:	6c12           	bges 0xef547e
  ef546c:	202e ffe4      	movel %fp@(-28),%d0
  ef5470:	e580           	asll #2,%d0
  ef5472:	2040           	moveal %d0,%a0
  ef5474:	d1fc 00ef 7e5c 	addal #15695452,%a0
  ef547a:	2d50 ffe4      	movel %a0@,%fp@(-28)
  ef547e:	206e ffea      	moveal %fp@(-22),%a0
  ef5482:	202e ffe4      	movel %fp@(-28),%d0
  ef5486:	0680 00eb 0000 	addil #15400960,%d0
  ef548c:	2840           	moveal %d0,%a4
  ef548e:	214c 000c      	movel %a4,%a0@(12)
  ef5492:	4878 0067      	pea 0x67
  ef5496:	4854           	pea %a4@
  ef5498:	4eba d868      	jsr %pc@(0xef2d02)
  ef549c:	504f           	addqw #8,%sp
  ef549e:	4a80           	tstl %d0
  ef54a0:	6620           	bnes 0xef54c2
  ef54a2:	4878 0089      	pea 0x89
  ef54a6:	486c 0001      	pea %a4@(1)
  ef54aa:	4eba d856      	jsr %pc@(0xef2d02)
  ef54ae:	504f           	addqw #8,%sp
  ef54b0:	4a80           	tstl %d0
  ef54b2:	660e           	bnes 0xef54c2
  ef54b4:	0c14 0067      	cmpib #103,%a4@
  ef54b8:	6608           	bnes 0xef54c2
  ef54ba:	0c2c 0089 0001 	cmpib #-119,%a4@(1)
  ef54c0:	6716           	beqs 0xef54d8
  ef54c2:	2f2e ffe4      	movel %fp@(-28),%sp@-
  ef54c6:	4879 00ef 7586 	pea 0xef7586
  ef54cc:	4eba cb8e      	jsr %pc@(0xef205c)
  ef54d0:	504f           	addqw #8,%sp
  ef54d2:	70ff           	moveq #-1,%d0
  ef54d4:	6000 0220      	braw 0xef56f6
  ef54d8:	206e ffea      	moveal %fp@(-22),%a0
  ef54dc:	7e04           	moveq #4,%d7
  ef54de:	3147 0006      	movew %d7,%a0@(6)
  ef54e2:	206e ffea      	moveal %fp@(-22),%a0
  ef54e6:	7e20           	moveq #32,%d7
  ef54e8:	3147 0002      	movew %d7,%a0@(2)
  ef54ec:	206e ffea      	moveal %fp@(-22),%a0
  ef54f0:	7e02           	moveq #2,%d7
  ef54f2:	3147 0004      	movew %d7,%a0@(4)
  ef54f6:	7000           	moveq #0,%d0
  ef54f8:	102c 0004      	moveb %a4@(4),%d0
  ef54fc:	2e00           	movel %d0,%d7
  ef54fe:	42a7           	clrl %sp@-
  ef5500:	42a7           	clrl %sp@-
  ef5502:	2f2e ffea      	movel %fp@(-22),%sp@-
  ef5506:	4878 0006      	pea 0x6
  ef550a:	6100 0230      	bsrw 0xef573c
  ef550e:	4fef 0010      	lea %sp@(16),%sp
  ef5512:	2f2e ffea      	movel %fp@(-22),%sp@-
  ef5516:	4854           	pea %a4@
  ef5518:	487a 01e6      	pea %pc@(0xef5700)
  ef551c:	4eba d70c      	jsr %pc@(0xef2c2a)
  ef5520:	4fef 000c      	lea %sp@(12),%sp
  ef5524:	4a80           	tstl %d0
  ef5526:	6700 01c4      	beqw 0xef56ec
  ef552a:	206e ffea      	moveal %fp@(-22),%a0
  ef552e:	4268 0008      	clrw %a0@(8)
  ef5532:	206e ffea      	moveal %fp@(-22),%a0
  ef5536:	0c68 0004 0008 	cmpiw #4,%a0@(8)
  ef553c:	6400 0176      	bccw 0xef56b4
  ef5540:	4268 000a      	clrw %a0@(10)
  ef5544:	206e ffea      	moveal %fp@(-22),%a0
  ef5548:	0c68 0004 000a 	cmpiw #4,%a0@(10)
  ef554e:	6400 0158      	bccw 0xef56a8
  ef5552:	4279 00f0 03fc 	clrw 0xf003fc
  ef5558:	4879 00f0 0200 	pea 0xf00200
  ef555e:	3028 0008      	movew %a0@(8),%d0
  ef5562:	3228 0002      	movew %a0@(2),%d1
  ef5566:	c0c1           	muluw %d1,%d0
  ef5568:	2f00           	movel %d0,%sp@-
  ef556a:	2f08           	movel %a0,%sp@-
  ef556c:	4878 0002      	pea 0x2
  ef5570:	6100 01ca      	bsrw 0xef573c
  ef5574:	4fef 0010      	lea %sp@(16),%sp
  ef5578:	4a80           	tstl %d0
  ef557a:	6600 0120      	bnew 0xef569c
  ef557e:	4879 00f0 0200 	pea 0xf00200
  ef5584:	4eba d652      	jsr %pc@(0xef2bd8)
  ef5588:	584f           	addqw #4,%sp
  ef558a:	4a80           	tstl %d0
  ef558c:	6600 010e      	bnew 0xef569c
  ef5590:	302e fffe      	movew %fp@(-2),%d0
  ef5594:	b079 00f0 03ba 	cmpw 0xf003ba,%d0
  ef559a:	6600 0100      	bnew 0xef569c
  ef559e:	206e ffea      	moveal %fp@(-22),%a0
  ef55a2:	3028 0008      	movew %a0@(8),%d0
  ef55a6:	b079 00f0 03b8 	cmpw 0xf003b8,%d0
  ef55ac:	6600 00ee      	bnew 0xef569c
  ef55b0:	3179 00f0 03b4 	movew 0xf003b4,%a0@(6)
  ef55b6:	0006 
  ef55b8:	206e ffea      	moveal %fp@(-22),%a0
  ef55bc:	3179 00f0 03b6 	movew 0xf003b6,%a0@(2)
  ef55c2:	0002 
  ef55c4:	206e ffea      	moveal %fp@(-22),%a0
  ef55c8:	3039 00f0 03b0 	movew 0xf003b0,%d0
  ef55ce:	d079 00f0 03b2 	addw 0xf003b2,%d0
  ef55d4:	3140 0004      	movew %d0,%a0@(4)
  ef55d8:	102b 0003      	moveb %a3@(3),%d0
  ef55dc:	7e1c           	moveq #28,%d7
  ef55de:	c007           	andb %d7,%d0
  ef55e0:	7e04           	moveq #4,%d7
  ef55e2:	b007           	cmpb %d7,%d0
  ef55e4:	6600 00da      	bnew 0xef56c0
  ef55e8:	4878 0018      	pea 0x18
  ef55ec:	4879 00f0 0100 	pea 0xf00100
  ef55f2:	4eba d594      	jsr %pc@(0xef2b88)
  ef55f6:	504f           	addqw #8,%sp
  ef55f8:	08eb 0006 0001 	bset #6,%a3@(1)
  ef55fe:	08eb 0007 0001 	bset #7,%a3@(1)
  ef5604:	7ef0           	moveq #-16,%d7
  ef5606:	cf2b 0001      	andb %d7,%a3@(1)
  ef560a:	7e0b           	moveq #11,%d7
  ef560c:	8f2b 0001      	orb %d7,%a3@(1)
  ef5610:	206e ffea      	moveal %fp@(-22),%a0
  ef5614:	1010           	moveb %a0@,%d0
  ef5616:	0280 0000 00ff 	andil #255,%d0
  ef561c:	7e03           	moveq #3,%d7
  ef561e:	c087           	andl %d7,%d0
  ef5620:	7efc           	moveq #-4,%d7
  ef5622:	cf2b 0004      	andb %d7,%a3@(4)
  ef5626:	7e03           	moveq #3,%d7
  ef5628:	c007           	andb %d7,%d0
  ef562a:	812b 0004      	orb %d0,%a3@(4)
  ef562e:	206e ffea      	moveal %fp@(-22),%a0
  ef5632:	3028 0004      	movew %a0@(4),%d0
  ef5636:	5340           	subqw #1,%d0
  ef5638:	3740 0008      	movew %d0,%a3@(8)
  ef563c:	206e ffea      	moveal %fp@(-22),%a0
  ef5640:	3028 0006      	movew %a0@(6),%d0
  ef5644:	5340           	subqw #1,%d0
  ef5646:	1740 0007      	moveb %d0,%a3@(7)
  ef564a:	206e ffea      	moveal %fp@(-22),%a0
  ef564e:	3028 0002      	movew %a0@(2),%d0
  ef5652:	5340           	subqw #1,%d0
  ef5654:	1740 0006      	moveb %d0,%a3@(6)
  ef5658:	206e ffea      	moveal %fp@(-22),%a0
  ef565c:	3028 0008      	movew %a0@(8),%d0
  ef5660:	1740 0011      	moveb %d0,%a3@(17)
  ef5664:	0f2c 0005      	btst %d7,%a4@(5)
  ef5668:	7000           	moveq #0,%d0
  ef566a:	1c00           	moveb %d0,%d6
  ef566c:	e080           	asrl #8,%d0
  ef566e:	1880           	moveb %d0,%a4@
  ef5670:	1946 0001      	moveb %d6,%a4@(1)
  ef5674:	2c3c 0000 0100 	movel #256,%d6
  ef567a:	2006           	movel %d6,%d0
  ef567c:	e080           	asrl #8,%d0
  ef567e:	1940 0002      	moveb %d0,%a4@(2)
  ef5682:	1946 0003      	moveb %d6,%a4@(3)
  ef5686:	197c 0080 0005 	moveb #-128,%a4@(5)
  ef568c:	7a0f           	moveq #15,%d5
  ef568e:	5385           	subql #1,%d5
  ef5690:	6efc           	bgts 0xef568e
  ef5692:	082c 0007 0005 	btst #7,%a4@(5)
  ef5698:	66f2           	bnes 0xef568c
  ef569a:	6024           	bras 0xef56c0
  ef569c:	206e ffea      	moveal %fp@(-22),%a0
  ef56a0:	5268 000a      	addqw #1,%a0@(10)
  ef56a4:	6000 fe9e      	braw 0xef5544
  ef56a8:	206e ffea      	moveal %fp@(-22),%a0
  ef56ac:	5268 0008      	addqw #1,%a0@(8)
  ef56b0:	6000 fe80      	braw 0xef5532
  ef56b4:	4879 00ef 755c 	pea 0xef755c
  ef56ba:	4eba c9a0      	jsr %pc@(0xef205c)
  ef56be:	584f           	addqw #4,%sp
  ef56c0:	247c 0000 4000 	moveal #16384,%a2
  ef56c6:	7e01           	moveq #1,%d7
  ef56c8:	600c           	bras 0xef56d6
  ef56ca:	45ea 0200      	lea %a2@(512),%a2
  ef56ce:	5287           	addql #1,%d7
  ef56d0:	7210           	moveq #16,%d1
  ef56d2:	be81           	cmpl %d1,%d7
  ef56d4:	6c1a           	bges 0xef56f0
  ef56d6:	4852           	pea %a2@
  ef56d8:	2f07           	movel %d7,%sp@-
  ef56da:	2f2e ffea      	movel %fp@(-22),%sp@-
  ef56de:	4878 0002      	pea 0x2
  ef56e2:	6158           	bsrs 0xef573c
  ef56e4:	4fef 0010      	lea %sp@(16),%sp
  ef56e8:	4a80           	tstl %d0
  ef56ea:	67de           	beqs 0xef56ca
  ef56ec:	70ff           	moveq #-1,%d0
  ef56ee:	6006           	bras 0xef56f6
  ef56f0:	203c 0000 4000 	movel #16384,%d0
  ef56f6:	4cee 3ce0 ffc8 	moveml %fp@(-56),%d5-%d7/%a2-%a5
  ef56fc:	4e5e           	unlk %fp
  ef56fe:	4e75           	rts
  ef5700:	4e56 fff8      	linkw %fp,#-8
  ef5704:	48d7 3000      	moveml %a4-%a5,%sp@
  ef5708:	2a6e 000c      	moveal %fp@(12),%a5
  ef570c:	287c 00f0 0100 	moveal #15728896,%a4
  ef5712:	42a7           	clrl %sp@-
  ef5714:	42a7           	clrl %sp@-
  ef5716:	4855           	pea %a5@
  ef5718:	4878 0009      	pea 0x9
  ef571c:	611e           	bsrs 0xef573c
  ef571e:	4fef 0010      	lea %sp@(16),%sp
  ef5722:	302c 000a      	movew %a4@(10),%d0
  ef5726:	0800 0006      	btst #6,%d0
  ef572a:	6704           	beqs 0xef5730
  ef572c:	7000           	moveq #0,%d0
  ef572e:	6002           	bras 0xef5732
  ef5730:	7001           	moveq #1,%d0
  ef5732:	4cee 3000 fff8 	moveml %fp@(-8),%a4-%a5
  ef5738:	4e5e           	unlk %fp
  ef573a:	4e75           	rts
  ef573c:	4e56 ffcc      	linkw %fp,#-52
  ef5740:	48d7 3cf0      	moveml %d4-%d7/%a2-%a5,%sp@
  ef5744:	2e2e 0008      	movel %fp@(8),%d7
  ef5748:	2a6e 000c      	moveal %fp@(12),%a5
  ef574c:	2c2e 0010      	movel %fp@(16),%d6
  ef5750:	287c 00f0 0100 	moveal #15728896,%a4
  ef5756:	266d 000c      	moveal %a5@(12),%a3
  ef575a:	42ae fff4      	clrl %fp@(-12)
  ef575e:	247c 00f0 0200 	moveal #15729152,%a2
  ef5764:	7200           	moveq #0,%d1
  ef5766:	322d 0002      	movew %a5@(2),%d1
  ef576a:	2006           	movel %d6,%d0
  ef576c:	4eba cb78      	jsr %pc@(0xef22e6)
  ef5770:	3a00           	movew %d0,%d5
  ef5772:	c0ed 0002      	muluw %a5@(2),%d0
  ef5776:	2206           	movel %d6,%d1
  ef5778:	9280           	subl %d0,%d1
  ef577a:	3d41 fff0      	movew %d1,%fp@(-16)
  ef577e:	3005           	movew %d5,%d0
  ef5780:	0280 0000 ffff 	andil #65535,%d0
  ef5786:	80ed 0006      	divuw %a5@(6),%d0
  ef578a:	0280 0000 ffff 	andil #65535,%d0
  ef5790:	3d40 fff2      	movew %d0,%fp@(-14)
  ef5794:	c0ed 0006      	muluw %a5@(6),%d0
  ef5798:	7200           	moveq #0,%d1
  ef579a:	3205           	movew %d5,%d1
  ef579c:	9280           	subl %d0,%d1
  ef579e:	3d41 ffee      	movew %d1,%fp@(-18)
  ef57a2:	4878 0018      	pea 0x18
  ef57a6:	4879 00f0 0100 	pea 0xf00100
  ef57ac:	4eba d3da      	jsr %pc@(0xef2b88)
  ef57b0:	504f           	addqw #8,%sp
  ef57b2:	08ec 0006 0001 	bset #6,%a4@(1)
  ef57b8:	08ec 0007 0001 	bset #7,%a4@(1)
  ef57be:	78fc           	moveq #-4,%d4
  ef57c0:	c914           	andb %d4,%a4@
  ef57c2:	7802           	moveq #2,%d4
  ef57c4:	8914           	orb %d4,%a4@
  ef57c6:	1007           	moveb %d7,%d0
  ef57c8:	78f0           	moveq #-16,%d4
  ef57ca:	c92c 0001      	andb %d4,%a4@(1)
  ef57ce:	780f           	moveq #15,%d4
  ef57d0:	c004           	andb %d4,%d0
  ef57d2:	812c 0001      	orb %d0,%a4@(1)
  ef57d6:	102d 000b      	moveb %a5@(11),%d0
  ef57da:	022c ff3f 0004 	andib #63,%a4@(4)
  ef57e0:	7803           	moveq #3,%d4
  ef57e2:	c004           	andb %d4,%d0
  ef57e4:	ed88           	lsll #6,%d0
  ef57e6:	812c 0004      	orb %d0,%a4@(4)
  ef57ea:	1015           	moveb %a5@,%d0
  ef57ec:	c084           	andl %d4,%d0
  ef57ee:	78fc           	moveq #-4,%d4
  ef57f0:	c92c 0004      	andb %d4,%a4@(4)
  ef57f4:	7803           	moveq #3,%d4
  ef57f6:	c004           	andb %d4,%d0
  ef57f8:	812c 0004      	orb %d0,%a4@(4)
  ef57fc:	78f8           	moveq #-8,%d4
  ef57fe:	c92c 0005      	andb %d4,%a4@(5)
  ef5802:	7804           	moveq #4,%d4
  ef5804:	892c 0005      	orb %d4,%a4@(5)
  ef5808:	196e fff1 0006 	moveb %fp@(-15),%a4@(6)
  ef580e:	196e ffef 0007 	moveb %fp@(-17),%a4@(7)
  ef5814:	396e fff2 0008 	movew %fp@(-14),%a4@(8)
  ef581a:	7801           	moveq #1,%d4
  ef581c:	3944 000a      	movew %d4,%a4@(10)
  ef5820:	397c 0200 000c 	movew #512,%a4@(12)
  ef5826:	082b 0003 0005 	btst #3,%a3@(5)
  ef582c:	7000           	moveq #0,%d0
  ef582e:	3940 000e      	movew %d0,%a4@(14)
  ef5832:	082b 0003 0005 	btst #3,%a3@(5)
  ef5838:	7000           	moveq #0,%d0
  ef583a:	2d40 fffc      	movel %d0,%fp@(-4)
  ef583e:	e080           	asrl #8,%d0
  ef5840:	1680           	moveb %d0,%a3@
  ef5842:	176e ffff 0001 	moveb %fp@(-1),%a3@(1)
  ef5848:	2d7c 0000 0100 	movel #256,%fp@(-4)
  ef584e:	fffc 
  ef5850:	202e fffc      	movel %fp@(-4),%d0
  ef5854:	e080           	asrl #8,%d0
  ef5856:	1740 0002      	moveb %d0,%a3@(2)
  ef585a:	176e ffff 0003 	moveb %fp@(-1),%a3@(3)
  ef5860:	177c 0080 0005 	moveb #-128,%a3@(5)
  ef5866:	780f           	moveq #15,%d4
  ef5868:	5384           	subql #1,%d4
  ef586a:	6efc           	bgts 0xef5868
  ef586c:	082b 0007 0005 	btst #7,%a3@(5)
  ef5872:	66f2           	bnes 0xef5866
  ef5874:	7209           	moveq #9,%d1
  ef5876:	be81           	cmpl %d1,%d7
  ef5878:	660e           	bnes 0xef5888
  ef587a:	082b 0000 0005 	btst #0,%a3@(5)
  ef5880:	6606           	bnes 0xef5888
  ef5882:	7240           	moveq #64,%d1
  ef5884:	836c 000a      	orw %d1,%a4@(10)
  ef5888:	7000           	moveq #0,%d0
  ef588a:	102b 0004      	moveb %a3@(4),%d0
  ef588e:	3a00           	movew %d0,%d5
  ef5890:	082c 0007 0003 	btst #7,%a4@(3)
  ef5896:	6758           	beqs 0xef58f0
  ef5898:	7000           	moveq #0,%d0
  ef589a:	102c 0002      	moveb %a4@(2),%d0
  ef589e:	2d40 fff8      	movel %d0,%fp@(-8)
  ef58a2:	7206           	moveq #6,%d1
  ef58a4:	be81           	cmpl %d1,%d7
  ef58a6:	6712           	beqs 0xef58ba
  ef58a8:	42a7           	clrl %sp@-
  ef58aa:	42a7           	clrl %sp@-
  ef58ac:	4855           	pea %a5@
  ef58ae:	4878 0006      	pea 0x6
  ef58b2:	6100 fe88      	bsrw 0xef573c
  ef58b6:	4fef 0010      	lea %sp@(16),%sp
  ef58ba:	52ae fff4      	addql #1,%fp@(-12)
  ef58be:	0cae 0000 000a 	cmpil #10,%fp@(-12)
  ef58c4:	fff4 
  ef58c6:	6d00 feda      	bltw 0xef57a2
  ef58ca:	4a86           	tstl %d6
  ef58cc:	660a           	bnes 0xef58d8
  ef58ce:	0cae 0000 0005 	cmpil #5,%fp@(-8)
  ef58d4:	fff8 
  ef58d6:	6714           	beqs 0xef58ec
  ef58d8:	2f07           	movel %d7,%sp@-
  ef58da:	2f2e fff8      	movel %fp@(-8),%sp@-
  ef58de:	4879 00ef 7e64 	pea 0xef7e64
  ef58e4:	4eba c776      	jsr %pc@(0xef205c)
  ef58e8:	4fef 000c      	lea %sp@(12),%sp
  ef58ec:	70ff           	moveq #-1,%d0
  ef58ee:	6024           	bras 0xef5914
  ef58f0:	7202           	moveq #2,%d1
  ef58f2:	be81           	cmpl %d1,%d7
  ef58f4:	661c           	bnes 0xef5912
  ef58f6:	202e 0014      	movel %fp@(20),%d0
  ef58fa:	b08a           	cmpl %a2,%d0
  ef58fc:	6714           	beqs 0xef5912
  ef58fe:	7a00           	moveq #0,%d5
  ef5900:	206e 0014      	moveal %fp@(20),%a0
  ef5904:	109a           	moveb %a2@+,%a0@
  ef5906:	52ae 0014      	addql #1,%fp@(20)
  ef590a:	5245           	addqw #1,%d5
  ef590c:	0c45 0200      	cmpiw #512,%d5
  ef5910:	65ee           	bcss 0xef5900
  ef5912:	7000           	moveq #0,%d0
  ef5914:	4cee 3cf0 ffcc 	moveml %fp@(-52),%d4-%d7/%a2-%a5
  ef591a:	4e5e           	unlk %fp
  ef591c:	4e75           	rts
  ef591e:	0000 4e56      	orib #86,%d0
  ef5922:	0000 2f2e      	orib #46,%d0
  ef5926:	0008           	010
  ef5928:	4879 00ef 7e8c 	pea 0xef7e8c
  ef592e:	4eba c72c      	jsr %pc@(0xef205c)
  ef5932:	504f           	addqw #8,%sp
  ef5934:	4e5e           	unlk %fp
  ef5936:	4e75           	rts
  ef5938:	4e56 ffec      	linkw %fp,#-20
  ef593c:	48d7 30e0      	moveml %d5-%d7/%a4-%a5,%sp@
  ef5940:	2a6e 0018      	moveal %fp@(24),%a5
  ef5944:	1aae 001f      	moveb %fp@(31),%a5@
  ef5948:	2e3c 0001 86a0 	movel #100000,%d7
  ef594e:	302d 0004      	movew %a5@(4),%d0
  ef5952:	0800 0006      	btst #6,%d0
  ef5956:	6728           	beqs 0xef5980
  ef5958:	2007           	movel %d7,%d0
  ef595a:	5387           	subql #1,%d7
  ef595c:	4a80           	tstl %d0
  ef595e:	6eee           	bgts 0xef594e
  ef5960:	7a10           	moveq #16,%d5
  ef5962:	3b45 0004      	movew %d5,%a5@(4)
  ef5966:	7a19           	moveq #25,%d5
  ef5968:	5385           	subql #1,%d5
  ef596a:	6efc           	bgts 0xef5968
  ef596c:	426d 0004      	clrw %a5@(4)
  ef5970:	4879 00ef 7e96 	pea 0xef7e96
  ef5976:	61a8           	bsrs 0xef5920
  ef5978:	584f           	addqw #4,%sp
  ef597a:	70ff           	moveq #-1,%d0
  ef597c:	6000 00dc      	braw 0xef5a5a
  ef5980:	7220           	moveq #32,%d1
  ef5982:	3b41 0004      	movew %d1,%a5@(4)
  ef5986:	4878 0040      	pea 0x40
  ef598a:	4855           	pea %a5@
  ef598c:	6100 00d6      	bsrw 0xef5a64
  ef5990:	504f           	addqw #8,%sp
  ef5992:	4a80           	tstl %d0
  ef5994:	6610           	bnes 0xef59a6
  ef5996:	4879 00ef 7eac 	pea 0xef7eac
  ef599c:	6182           	bsrs 0xef5920
  ef599e:	584f           	addqw #4,%sp
  ef59a0:	70ff           	moveq #-1,%d0
  ef59a2:	6000 00b6      	braw 0xef5a5a
  ef59a6:	7e06           	moveq #6,%d7
  ef59a8:	3b47 0004      	movew %d7,%a5@(4)
  ef59ac:	202e 0014      	movel %fp@(20),%d0
  ef59b0:	0280 000f ffff 	andil #1048575,%d0
  ef59b6:	2b40 0008      	movel %d0,%a5@(8)
  ef59ba:	202e 0010      	movel %fp@(16),%d0
  ef59be:	4680           	notl %d0
  ef59c0:	3b40 000c      	movew %d0,%a5@(12)
  ef59c4:	286e 0008      	moveal %fp@(8),%a4
  ef59c8:	7e00           	moveq #0,%d7
  ef59ca:	101c           	moveb %a4@+,%d0
  ef59cc:	4880           	extw %d0
  ef59ce:	48c0           	extl %d0
  ef59d0:	2f00           	movel %d0,%sp@-
  ef59d2:	4878 0200      	pea 0x200
  ef59d6:	4855           	pea %a5@
  ef59d8:	6100 00fe      	bsrw 0xef5ad8
  ef59dc:	4fef 000c      	lea %sp@(12),%sp
  ef59e0:	4a80           	tstl %d0
  ef59e2:	675e           	beqs 0xef5a42
  ef59e4:	5287           	addql #1,%d7
  ef59e6:	7206           	moveq #6,%d1
  ef59e8:	be81           	cmpl %d1,%d7
  ef59ea:	6dde           	blts 0xef59ca
  ef59ec:	4878 1000      	pea 0x1000
  ef59f0:	4855           	pea %a5@
  ef59f2:	6170           	bsrs 0xef5a64
  ef59f4:	504f           	addqw #8,%sp
  ef59f6:	4a80           	tstl %d0
  ef59f8:	6748           	beqs 0xef5a42
  ef59fa:	286e 000c      	moveal %fp@(12),%a4
  ef59fe:	7e00           	moveq #0,%d7
  ef5a00:	4878 0300      	pea 0x300
  ef5a04:	4855           	pea %a5@
  ef5a06:	6100 011e      	bsrw 0xef5b26
  ef5a0a:	504f           	addqw #8,%sp
  ef5a0c:	2c00           	movel %d0,%d6
  ef5a0e:	72ff           	moveq #-1,%d1
  ef5a10:	bc81           	cmpl %d1,%d6
  ef5a12:	670e           	beqs 0xef5a22
  ef5a14:	7203           	moveq #3,%d1
  ef5a16:	be81           	cmpl %d1,%d7
  ef5a18:	6ce6           	bges 0xef5a00
  ef5a1a:	1986 7800      	moveb %d6,%a4@(00000000,%d7:l)
  ef5a1e:	5287           	addql #1,%d7
  ef5a20:	60de           	bras 0xef5a00
  ef5a22:	4878 0700      	pea 0x700
  ef5a26:	4855           	pea %a5@
  ef5a28:	6100 00fc      	bsrw 0xef5b26
  ef5a2c:	504f           	addqw #8,%sp
  ef5a2e:	2c00           	movel %d0,%d6
  ef5a30:	6714           	beqs 0xef5a46
  ef5a32:	4a86           	tstl %d6
  ef5a34:	6d0c           	blts 0xef5a42
  ef5a36:	4879 00ef 7eba 	pea 0xef7eba
  ef5a3c:	6100 fee2      	bsrw 0xef5920
  ef5a40:	584f           	addqw #4,%sp
  ef5a42:	70ff           	moveq #-1,%d0
  ef5a44:	6014           	bras 0xef5a5a
  ef5a46:	302d 000c      	movew %a5@(12),%d0
  ef5a4a:	4640           	notw %d0
  ef5a4c:	0280 0000 ffff 	andil #65535,%d0
  ef5a52:	222e 0010      	movel %fp@(16),%d1
  ef5a56:	9280           	subl %d0,%d1
  ef5a58:	2001           	movel %d1,%d0
  ef5a5a:	4cee 30e0 ffec 	moveml %fp@(-20),%d5-%d7/%a4-%a5
  ef5a60:	4e5e           	unlk %fp
  ef5a62:	4e75           	rts
  ef5a64:	4e56 fff0      	linkw %fp,#-16
  ef5a68:	48d7 20e0      	moveml %d5-%d7/%a5,%sp@
  ef5a6c:	2a6e 0008      	moveal %fp@(8),%a5
  ef5a70:	0cae 0000 1000 	cmpil #4096,%fp@(12)
  ef5a76:	000c 
  ef5a78:	6608           	bnes 0xef5a82
  ef5a7a:	2c3c 0098 9680 	movel #10000000,%d6
  ef5a80:	6006           	bras 0xef5a88
  ef5a82:	2c3c 0001 86a0 	movel #100000,%d6
  ef5a88:	7000           	moveq #0,%d0
  ef5a8a:	302d 0004      	movew %a5@(4),%d0
  ef5a8e:	2e00           	movel %d0,%d7
  ef5a90:	c0ae 000c      	andl %fp@(12),%d0
  ef5a94:	b0ae 000c      	cmpl %fp@(12),%d0
  ef5a98:	6732           	beqs 0xef5acc
  ef5a9a:	5386           	subql #1,%d6
  ef5a9c:	6e10           	bgts 0xef5aae
  ef5a9e:	4879 00ef 7eca 	pea 0xef7eca
  ef5aa4:	6100 fe7a      	bsrw 0xef5920
  ef5aa8:	584f           	addqw #4,%sp
  ef5aaa:	7000           	moveq #0,%d0
  ef5aac:	6020           	bras 0xef5ace
  ef5aae:	0807 000e      	btst #14,%d7
  ef5ab2:	6710           	beqs 0xef5ac4
  ef5ab4:	4879 00ef 7ed2 	pea 0xef7ed2
  ef5aba:	6100 fe64      	bsrw 0xef5920
  ef5abe:	584f           	addqw #4,%sp
  ef5ac0:	7000           	moveq #0,%d0
  ef5ac2:	600a           	bras 0xef5ace
  ef5ac4:	7a32           	moveq #50,%d5
  ef5ac6:	5385           	subql #1,%d5
  ef5ac8:	6fbe           	bles 0xef5a88
  ef5aca:	60fa           	bras 0xef5ac6
  ef5acc:	7001           	moveq #1,%d0
  ef5ace:	4cee 20e0 fff0 	moveml %fp@(-16),%d5-%d7/%a5
  ef5ad4:	4e5e           	unlk %fp
  ef5ad6:	4e75           	rts
  ef5ad8:	4e56 fffc      	linkw %fp,#-4
  ef5adc:	2e8d           	movel %a5,%sp@
  ef5ade:	2a6e 0008      	moveal %fp@(8),%a5
  ef5ae2:	4878 0800      	pea 0x800
  ef5ae6:	4855           	pea %a5@
  ef5ae8:	6100 ff7a      	bsrw 0xef5a64
  ef5aec:	504f           	addqw #8,%sp
  ef5aee:	4a80           	tstl %d0
  ef5af0:	6604           	bnes 0xef5af6
  ef5af2:	7000           	moveq #0,%d0
  ef5af4:	6028           	bras 0xef5b1e
  ef5af6:	302d 0004      	movew %a5@(4),%d0
  ef5afa:	0280 0000 0700 	andil #1792,%d0
  ef5b00:	b0ae 000c      	cmpl %fp@(12),%d0
  ef5b04:	6710           	beqs 0xef5b16
  ef5b06:	4879 00ef 7e7c 	pea 0xef7e7c
  ef5b0c:	6100 fe12      	bsrw 0xef5920
  ef5b10:	584f           	addqw #4,%sp
  ef5b12:	7000           	moveq #0,%d0
  ef5b14:	6008           	bras 0xef5b1e
  ef5b16:	1b6e 0013 0002 	moveb %fp@(19),%a5@(2)
  ef5b1c:	7001           	moveq #1,%d0
  ef5b1e:	2a6e fffc      	moveal %fp@(-4),%a5
  ef5b22:	4e5e           	unlk %fp
  ef5b24:	4e75           	rts
  ef5b26:	4e56 0000      	linkw %fp,#0
  ef5b2a:	4878 0800      	pea 0x800
  ef5b2e:	2f2e 0008      	movel %fp@(8),%sp@-
  ef5b32:	6100 ff30      	bsrw 0xef5a64
  ef5b36:	504f           	addqw #8,%sp
  ef5b38:	4a80           	tstl %d0
  ef5b3a:	6730           	beqs 0xef5b6c
  ef5b3c:	206e 0008      	moveal %fp@(8),%a0
  ef5b40:	3028 0004      	movew %a0@(4),%d0
  ef5b44:	0280 0000 ffff 	andil #65535,%d0
  ef5b4a:	0280 0000 0700 	andil #1792,%d0
  ef5b50:	b0ae 000c      	cmpl %fp@(12),%d0
  ef5b54:	671a           	beqs 0xef5b70
  ef5b56:	0cae 0000 0300 	cmpil #768,%fp@(12)
  ef5b5c:	000c 
  ef5b5e:	670c           	beqs 0xef5b6c
  ef5b60:	4879 00ef 7e7c 	pea 0xef7e7c
  ef5b66:	6100 fdb8      	bsrw 0xef5920
  ef5b6a:	584f           	addqw #4,%sp
  ef5b6c:	70ff           	moveq #-1,%d0
  ef5b6e:	600e           	bras 0xef5b7e
  ef5b70:	206e 0008      	moveal %fp@(8),%a0
  ef5b74:	1028 0002      	moveb %a0@(2),%d0
  ef5b78:	0280 0000 00ff 	andil #255,%d0
  ef5b7e:	4e5e           	unlk %fp
  ef5b80:	4e75           	rts
  ef5b82:	0000 4e56      	orib #86,%d0
  ef5b86:	fff8           	0177770
  ef5b88:	42ae fff8      	clrl %fp@(-8)
  ef5b8c:	600e           	bras 0xef5b9c
  ef5b8e:	52ae fff8      	addql #1,%fp@(-8)
  ef5b92:	0cae 0000 0002 	cmpil #2,%fp@(-8)
  ef5b98:	fff8 
  ef5b9a:	6c44           	bges 0xef5be0
  ef5b9c:	202e fff8      	movel %fp@(-8),%d0
  ef5ba0:	e580           	asll #2,%d0
  ef5ba2:	2040           	moveal %d0,%a0
  ef5ba4:	d1fc 00ef 7edc 	addal #15695580,%a0
  ef5baa:	2d50 fffc      	movel %a0@,%fp@(-4)
  ef5bae:	202e fffc      	movel %fp@(-4),%d0
  ef5bb2:	720c           	moveq #12,%d1
  ef5bb4:	d081           	addl %d1,%d0
  ef5bb6:	2f00           	movel %d0,%sp@-
  ef5bb8:	4eba d11a      	jsr %pc@(0xef2cd4)
  ef5bbc:	584f           	addqw #4,%sp
  ef5bbe:	72ff           	moveq #-1,%d1
  ef5bc0:	b081           	cmpl %d1,%d0
  ef5bc2:	67ca           	beqs 0xef5b8e
  ef5bc4:	206e fffc      	moveal %fp@(-4),%a0
  ef5bc8:	317c 6789 000c 	movew #26505,%a0@(12)
  ef5bce:	206e fffc      	moveal %fp@(-4),%a0
  ef5bd2:	0c68 6789 000c 	cmpiw #26505,%a0@(12)
  ef5bd8:	66b4           	bnes 0xef5b8e
  ef5bda:	202e fff8      	movel %fp@(-8),%d0
  ef5bde:	6002           	bras 0xef5be2
  ef5be0:	70ff           	moveq #-1,%d0
  ef5be2:	4e5e           	unlk %fp
  ef5be4:	4e75           	rts
  ef5be6:	4e56 fffc      	linkw %fp,#-4
  ef5bea:	2e8d           	movel %a5,%sp@
  ef5bec:	2a6e 0008      	moveal %fp@(8),%a5
  ef5bf0:	42a7           	clrl %sp@-
  ef5bf2:	42a7           	clrl %sp@-
  ef5bf4:	42a7           	clrl %sp@-
  ef5bf6:	42a7           	clrl %sp@-
  ef5bf8:	4855           	pea %a5@
  ef5bfa:	42a7           	clrl %sp@-
  ef5bfc:	6100 0172      	bsrw 0xef5d70
  ef5c00:	4fef 0018      	lea %sp@(24),%sp
  ef5c04:	2a6e fffc      	moveal %fp@(-4),%a5
  ef5c08:	4e5e           	unlk %fp
  ef5c0a:	4e75           	rts
  ef5c0c:	4e56 ffe4      	linkw %fp,#-28
  ef5c10:	48d7 38c4      	moveml %d2/%d6-%d7/%a3-%a5,%sp@
  ef5c14:	2a6e 0008      	moveal %fp@(8),%a5
  ef5c18:	287c 00f0 0200 	moveal #15729152,%a4
  ef5c1e:	4878 0010      	pea 0x10
  ef5c22:	4854           	pea %a4@
  ef5c24:	4eba cf62      	jsr %pc@(0xef2b88)
  ef5c28:	504f           	addqw #8,%sp
  ef5c2a:	2b4c 0006      	movel %a4,%a5@(6)
  ef5c2e:	202d 000e      	movel %a5@(14),%d0
  ef5c32:	e480           	asrl #2,%d0
  ef5c34:	2880           	movel %d0,%a4@
  ef5c36:	202d 000e      	movel %a5@(14),%d0
  ef5c3a:	7203           	moveq #3,%d1
  ef5c3c:	c081           	andl %d1,%d0
  ef5c3e:	2940 0004      	movel %d0,%a4@(4)
  ef5c42:	0cad 0000 0002 	cmpil #2,%a5@(10)
  ef5c48:	000a 
  ef5c4a:	6c14           	bges 0xef5c60
  ef5c4c:	202d 000a      	movel %a5@(10),%d0
  ef5c50:	e580           	asll #2,%d0
  ef5c52:	2040           	moveal %d0,%a0
  ef5c54:	d1fc 00ef 7edc 	addal #15695580,%a0
  ef5c5a:	2950 000c      	movel %a0@,%a4@(12)
  ef5c5e:	600e           	bras 0xef5c6e
  ef5c60:	202d 000a      	movel %a5@(10),%d0
  ef5c64:	0680 00f0 0000 	addil #15728640,%d0
  ef5c6a:	2940 000c      	movel %d0,%a4@(12)
  ef5c6e:	206c 000c      	moveal %a4@(12),%a0
  ef5c72:	4268 0004      	clrw %a0@(4)
  ef5c76:	4279 00f0 21fc 	clrw 0xf021fc
  ef5c7c:	42a7           	clrl %sp@-
  ef5c7e:	4854           	pea %a4@
  ef5c80:	487a ff64      	pea %pc@(0xef5be6)
  ef5c84:	4eba cfa4      	jsr %pc@(0xef2c2a)
  ef5c88:	4fef 000c      	lea %sp@(12),%sp
  ef5c8c:	4a80           	tstl %d0
  ef5c8e:	6712           	beqs 0xef5ca2
  ef5c90:	7201           	moveq #1,%d1
  ef5c92:	b081           	cmpl %d1,%d0
  ef5c94:	6712           	beqs 0xef5ca8
  ef5c96:	2c3c 0007 a120 	movel #500000,%d6
  ef5c9c:	5386           	subql #1,%d6
  ef5c9e:	6f08           	bles 0xef5ca8
  ef5ca0:	60fa           	bras 0xef5c9c
  ef5ca2:	70ff           	moveq #-1,%d0
  ef5ca4:	6000 0082      	braw 0xef5d28
  ef5ca8:	4878 0001      	pea 0x1
  ef5cac:	4879 00f0 2000 	pea 0xf02000
  ef5cb2:	4878 0200      	pea 0x200
  ef5cb6:	42a7           	clrl %sp@-
  ef5cb8:	4854           	pea %a4@
  ef5cba:	4878 0008      	pea 0x8
  ef5cbe:	6100 00b0      	bsrw 0xef5d70
  ef5cc2:	4fef 0018      	lea %sp@(24),%sp
  ef5cc6:	4a80           	tstl %d0
  ef5cc8:	67d8           	beqs 0xef5ca2
  ef5cca:	7e00           	moveq #0,%d7
  ef5ccc:	2d7c 0000 0100 	movel #256,%fp@(-4)
  ef5cd2:	fffc 
  ef5cd4:	267c 00f0 2000 	moveal #15736832,%a3
  ef5cda:	202e fffc      	movel %fp@(-4),%d0
  ef5cde:	53ae fffc      	subql #1,%fp@(-4)
  ef5ce2:	4a80           	tstl %d0
  ef5ce4:	6706           	beqs 0xef5cec
  ef5ce6:	301b           	movew %a3@+,%d0
  ef5ce8:	b147           	eorw %d0,%d7
  ef5cea:	60ee           	bras 0xef5cda
  ef5cec:	4a47           	tstw %d7
  ef5cee:	6710           	beqs 0xef5d00
  ef5cf0:	4879 00ef 7ee8 	pea 0xef7ee8
  ef5cf6:	4eba c364      	jsr %pc@(0xef205c)
  ef5cfa:	584f           	addqw #4,%sp
  ef5cfc:	70ff           	moveq #-1,%d0
  ef5cfe:	6028           	bras 0xef5d28
  ef5d00:	242d 0012      	movel %a5@(18),%d2
  ef5d04:	e782           	asll #3,%d2
  ef5d06:	2042           	moveal %d2,%a0
  ef5d08:	d1fc 00f0 21bc 	addal #15737276,%a0
  ef5d0e:	2410           	movel %a0@,%d2
  ef5d10:	3039 00f0 21b4 	movew 0xf021b4,%d0
  ef5d16:	c0f9 00f0 21b6 	muluw 0xf021b6,%d0
  ef5d1c:	3200           	movew %d0,%d1
  ef5d1e:	3002           	movew %d2,%d0
  ef5d20:	c0c1           	muluw %d1,%d0
  ef5d22:	2940 0008      	movel %d0,%a4@(8)
  ef5d26:	7000           	moveq #0,%d0
  ef5d28:	4cee 38c4 ffe4 	moveml %fp@(-28),%d2/%d6-%d7/%a3-%a5
  ef5d2e:	4e5e           	unlk %fp
  ef5d30:	4e75           	rts
  ef5d32:	4e56 fffc      	linkw %fp,#-4
  ef5d36:	2e8d           	movel %a5,%sp@
  ef5d38:	2a6e 0008      	moveal %fp@(8),%a5
  ef5d3c:	4878 0001      	pea 0x1
  ef5d40:	2f2d 0022      	movel %a5@(34),%sp@-
  ef5d44:	2f2d 0026      	movel %a5@(38),%sp@-
  ef5d48:	2f2d 001e      	movel %a5@(30),%sp@-
  ef5d4c:	2f2d 0006      	movel %a5@(6),%sp@-
  ef5d50:	0cae 0000 0002 	cmpil #2,%fp@(12)
  ef5d56:	000c 
  ef5d58:	6604           	bnes 0xef5d5e
  ef5d5a:	700a           	moveq #10,%d0
  ef5d5c:	6002           	bras 0xef5d60
  ef5d5e:	7008           	moveq #8,%d0
  ef5d60:	2f00           	movel %d0,%sp@-
  ef5d62:	610c           	bsrs 0xef5d70
  ef5d64:	4fef 0018      	lea %sp@(24),%sp
  ef5d68:	2a6e fffc      	moveal %fp@(-4),%a5
  ef5d6c:	4e5e           	unlk %fp
  ef5d6e:	4e75           	rts
  ef5d70:	4e56 ffd0      	linkw %fp,#-48
  ef5d74:	48d7 3080      	moveml %d7/%a4-%a5,%sp@
  ef5d78:	2a6e 000c      	moveal %fp@(12),%a5
  ef5d7c:	286e 0018      	moveal %fp@(24),%a4
  ef5d80:	0cae 0000 000a 	cmpil #10,%fp@(8)
  ef5d86:	0008 
  ef5d88:	661c           	bnes 0xef5da6
  ef5d8a:	b9fc 00f0 2000 	cmpal #15736832,%a4
  ef5d90:	6714           	beqs 0xef5da6
  ef5d92:	2f2e 0014      	movel %fp@(20),%sp@-
  ef5d96:	4879 00f0 2000 	pea 0xf02000
  ef5d9c:	4854           	pea %a4@
  ef5d9e:	4eba ce0e      	jsr %pc@(0xef2bae)
  ef5da2:	4fef 000c      	lea %sp@(12),%sp
  ef5da6:	4878 0006      	pea 0x6
  ef5daa:	486e fffa      	pea %fp@(-6)
  ef5dae:	4eba cdd8      	jsr %pc@(0xef2b88)
  ef5db2:	504f           	addqw #8,%sp
  ef5db4:	1d6e 000b fffa 	moveb %fp@(11),%fp@(-6)
  ef5dba:	102d 0007      	moveb %a5@(7),%d0
  ef5dbe:	022e ff1f fffb 	andib #31,%fp@(-5)
  ef5dc4:	7207           	moveq #7,%d1
  ef5dc6:	c001           	andb %d1,%d0
  ef5dc8:	eb88           	lsll #5,%d0
  ef5dca:	812e fffb      	orb %d0,%fp@(-5)
  ef5dce:	202d 0008      	movel %a5@(8),%d0
  ef5dd2:	d1ae 0010      	addl %d0,%fp@(16)
  ef5dd6:	202e 0010      	movel %fp@(16),%d0
  ef5dda:	7210           	moveq #16,%d1
  ef5ddc:	e2a0           	asrl %d1,%d0
  ef5dde:	72e0           	moveq #-32,%d1
  ef5de0:	c32e fffb      	andb %d1,%fp@(-5)
  ef5de4:	721f           	moveq #31,%d1
  ef5de6:	c001           	andb %d1,%d0
  ef5de8:	812e fffb      	orb %d0,%fp@(-5)
  ef5dec:	202e 0010      	movel %fp@(16),%d0
  ef5df0:	e080           	asrl #8,%d0
  ef5df2:	0280 0000 00ff 	andil #255,%d0
  ef5df8:	1d40 fffc      	moveb %d0,%fp@(-4)
  ef5dfc:	102e 0013      	moveb %fp@(19),%d0
  ef5e00:	0280 0000 00ff 	andil #255,%d0
  ef5e06:	1d40 fffd      	moveb %d0,%fp@(-3)
  ef5e0a:	202e 0014      	movel %fp@(20),%d0
  ef5e0e:	0680 0000 01ff 	addil #511,%d0
  ef5e14:	0280 ffff fe00 	andil #-512,%d0
  ef5e1a:	2d40 ffdc      	movel %d0,%fp@(-36)
  ef5e1e:	4a80           	tstl %d0
  ef5e20:	6c06           	bges 0xef5e28
  ef5e22:	0680 0000 01ff 	addil #511,%d0
  ef5e28:	e080           	asrl #8,%d0
  ef5e2a:	e280           	asrl #1,%d0
  ef5e2c:	1d40 fffe      	moveb %d0,%fp@(-2)
  ef5e30:	42ae ffe8      	clrl %fp@(-24)
  ef5e34:	7001           	moveq #1,%d0
  ef5e36:	2215           	movel %a5@,%d1
  ef5e38:	e3a0           	asll %d1,%d0
  ef5e3a:	2f00           	movel %d0,%sp@-
  ef5e3c:	2f2d 000c      	movel %a5@(12),%sp@-
  ef5e40:	4879 00f0 2000 	pea 0xf02000
  ef5e46:	2f2e ffdc      	movel %fp@(-36),%sp@-
  ef5e4a:	486e fff0      	pea %fp@(-16)
  ef5e4e:	486e fffa      	pea %fp@(-6)
  ef5e52:	4eba fae4      	jsr %pc@(0xef5938)
  ef5e56:	4fef 0018      	lea %sp@(24),%sp
  ef5e5a:	2d40 ffe4      	movel %d0,%fp@(-28)
  ef5e5e:	082e 0001 fff0 	btst #1,%fp@(-16)
  ef5e64:	6700 00a0      	beqw 0xef5f06
  ef5e68:	4878 0006      	pea 0x6
  ef5e6c:	486e fff4      	pea %fp@(-12)
  ef5e70:	4eba cd16      	jsr %pc@(0xef2b88)
  ef5e74:	504f           	addqw #8,%sp
  ef5e76:	7203           	moveq #3,%d1
  ef5e78:	1d41 fff4      	moveb %d1,%fp@(-12)
  ef5e7c:	102d 0007      	moveb %a5@(7),%d0
  ef5e80:	022e ff1f fff5 	andib #31,%fp@(-11)
  ef5e86:	7207           	moveq #7,%d1
  ef5e88:	c001           	andb %d1,%d0
  ef5e8a:	eb88           	lsll #5,%d0
  ef5e8c:	812e fff5      	orb %d0,%fp@(-11)
  ef5e90:	7210           	moveq #16,%d1
  ef5e92:	1d41 fff8      	moveb %d1,%fp@(-8)
  ef5e96:	7001           	moveq #1,%d0
  ef5e98:	2215           	movel %a5@,%d1
  ef5e9a:	e3a0           	asll %d1,%d0
  ef5e9c:	2f00           	movel %d0,%sp@-
  ef5e9e:	2f2d 000c      	movel %a5@(12),%sp@-
  ef5ea2:	4879 00f0 2000 	pea 0xf02000
  ef5ea8:	7000           	moveq #0,%d0
  ef5eaa:	102e fff8      	moveb %fp@(-8),%d0
  ef5eae:	2f00           	movel %d0,%sp@-
  ef5eb0:	486e ffec      	pea %fp@(-20)
  ef5eb4:	486e fff4      	pea %fp@(-12)
  ef5eb8:	4eba fa7e      	jsr %pc@(0xef5938)
  ef5ebc:	4fef 0018      	lea %sp@(24),%sp
  ef5ec0:	2d40 ffe0      	movel %d0,%fp@(-32)
  ef5ec4:	0cae 0000 0004 	cmpil #4,%fp@(-32)
  ef5eca:	ffe0 
  ef5ecc:	6d1a           	blts 0xef5ee8
  ef5ece:	4aae 001c      	tstl %fp@(28)
  ef5ed2:	6700 00ae      	beqw 0xef5f82
  ef5ed6:	2f00           	movel %d0,%sp@-
  ef5ed8:	4879 00f0 2000 	pea 0xf02000
  ef5ede:	6100 00be      	bsrw 0xef5f9e
  ef5ee2:	504f           	addqw #8,%sp
  ef5ee4:	6000 009c      	braw 0xef5f82
  ef5ee8:	4aae 001c      	tstl %fp@(28)
  ef5eec:	6700 00a4      	beqw 0xef5f92
  ef5ef0:	4879 00ef 7f04 	pea 0xef7f04
  ef5ef6:	4879 00ef 7ef7 	pea 0xef7ef7
  ef5efc:	4eba c15e      	jsr %pc@(0xef205c)
  ef5f00:	504f           	addqw #8,%sp
  ef5f02:	6000 008e      	braw 0xef5f92
  ef5f06:	082e 0003 fff0 	btst #3,%fp@(-16)
  ef5f0c:	6718           	beqs 0xef5f26
  ef5f0e:	4879 00ef 7f11 	pea 0xef7f11
  ef5f14:	4eba fa0a      	jsr %pc@(0xef5920)
  ef5f18:	584f           	addqw #4,%sp
  ef5f1a:	2e3c 0000 c350 	movel #50000,%d7
  ef5f20:	5387           	subql #1,%d7
  ef5f22:	6f5e           	bles 0xef5f82
  ef5f24:	60fa           	bras 0xef5f20
  ef5f26:	202e ffe4      	movel %fp@(-28),%d0
  ef5f2a:	b0ae ffdc      	cmpl %fp@(-36),%d0
  ef5f2e:	671c           	beqs 0xef5f4c
  ef5f30:	4aae 001c      	tstl %fp@(28)
  ef5f34:	674c           	beqs 0xef5f82
  ef5f36:	2f2e ffdc      	movel %fp@(-36),%sp@-
  ef5f3a:	2f00           	movel %d0,%sp@-
  ef5f3c:	4879 00ef 7f1b 	pea 0xef7f1b
  ef5f42:	4eba c118      	jsr %pc@(0xef205c)
  ef5f46:	4fef 000c      	lea %sp@(12),%sp
  ef5f4a:	6036           	bras 0xef5f82
  ef5f4c:	0cae 0000 0008 	cmpil #8,%fp@(8)
  ef5f52:	0008 
  ef5f54:	661c           	bnes 0xef5f72
  ef5f56:	b9fc 00f0 2000 	cmpal #15736832,%a4
  ef5f5c:	6714           	beqs 0xef5f72
  ef5f5e:	2f2e 0014      	movel %fp@(20),%sp@-
  ef5f62:	4854           	pea %a4@
  ef5f64:	4879 00f0 2000 	pea 0xf02000
  ef5f6a:	4eba cc42      	jsr %pc@(0xef2bae)
  ef5f6e:	4fef 000c      	lea %sp@(12),%sp
  ef5f72:	4aae ffdc      	tstl %fp@(-36)
  ef5f76:	6706           	beqs 0xef5f7e
  ef5f78:	202e ffdc      	movel %fp@(-36),%d0
  ef5f7c:	6016           	bras 0xef5f94
  ef5f7e:	7001           	moveq #1,%d0
  ef5f80:	6012           	bras 0xef5f94
  ef5f82:	202e ffe8      	movel %fp@(-24),%d0
  ef5f86:	52ae ffe8      	addql #1,%fp@(-24)
  ef5f8a:	7210           	moveq #16,%d1
  ef5f8c:	b081           	cmpl %d1,%d0
  ef5f8e:	6d00 fea4      	bltw 0xef5e34
  ef5f92:	7000           	moveq #0,%d0
  ef5f94:	4cee 3080 ffd0 	moveml %fp@(-48),%d7/%a4-%a5
  ef5f9a:	4e5e           	unlk %fp
  ef5f9c:	4e75           	rts
  ef5f9e:	4e56 0000      	linkw %fp,#0
  ef5fa2:	4879 00ef 7f3a 	pea 0xef7f3a
  ef5fa8:	4eba c0b2      	jsr %pc@(0xef205c)
  ef5fac:	584f           	addqw #4,%sp
  ef5fae:	53ae 000c      	subql #1,%fp@(12)
  ef5fb2:	6d20           	blts 0xef5fd4
  ef5fb4:	206e 0008      	moveal %fp@(8),%a0
  ef5fb8:	52ae 0008      	addql #1,%fp@(8)
  ef5fbc:	1010           	moveb %a0@,%d0
  ef5fbe:	0280 0000 00ff 	andil #255,%d0
  ef5fc4:	2f00           	movel %d0,%sp@-
  ef5fc6:	4879 00ef 7f44 	pea 0xef7f44
  ef5fcc:	4eba c08e      	jsr %pc@(0xef205c)
  ef5fd0:	504f           	addqw #8,%sp
  ef5fd2:	60da           	bras 0xef5fae
  ef5fd4:	4879 00ef 7f48 	pea 0xef7f48
  ef5fda:	4eba c080      	jsr %pc@(0xef205c)
  ef5fde:	584f           	addqw #4,%sp
  ef5fe0:	4e5e           	unlk %fp
  ef5fe2:	4e75           	rts
  ef5fe4:	4e56 fff4      	linkw %fp,#-12
  ef5fe8:	48d7 3000      	moveml %a4-%a5,%sp@
  ef5fec:	2a6e 0008      	moveal %fp@(8),%a5
  ef5ff0:	287c 00f0 0200 	moveal #15729152,%a4
  ef5ff6:	4878 0014      	pea 0x14
  ef5ffa:	4854           	pea %a4@
  ef5ffc:	4eba cb8a      	jsr %pc@(0xef2b88)
  ef6000:	504f           	addqw #8,%sp
  ef6002:	2b4c 0006      	movel %a4,%a5@(6)
  ef6006:	202d 000e      	movel %a5@(14),%d0
  ef600a:	e680           	asrl #3,%d0
  ef600c:	2880           	movel %d0,%a4@
  ef600e:	4a94           	tstl %a4@
  ef6010:	6604           	bnes 0xef6016
  ef6012:	7204           	moveq #4,%d1
  ef6014:	2881           	movel %d1,%a4@
  ef6016:	202d 000e      	movel %a5@(14),%d0
  ef601a:	7207           	moveq #7,%d1
  ef601c:	c081           	andl %d1,%d0
  ef601e:	2940 0004      	movel %d0,%a4@(4)
  ef6022:	0cad 0000 0002 	cmpil #2,%a5@(10)
  ef6028:	000a 
  ef602a:	6c14           	bges 0xef6040
  ef602c:	202d 000a      	movel %a5@(10),%d0
  ef6030:	e580           	asll #2,%d0
  ef6032:	2040           	moveal %d0,%a0
  ef6034:	d1fc 00ef 7f4c 	addal #15695692,%a0
  ef603a:	2950 0010      	movel %a0@,%a4@(16)
  ef603e:	600e           	bras 0xef604e
  ef6040:	202d 000a      	movel %a5@(10),%d0
  ef6044:	0680 00f0 0000 	addil #15728640,%d0
  ef604a:	2940 0010      	movel %d0,%a4@(16)
  ef604e:	206c 0010      	moveal %a4@(16),%a0
  ef6052:	4268 0004      	clrw %a0@(4)
  ef6056:	42a7           	clrl %sp@-
  ef6058:	42a7           	clrl %sp@-
  ef605a:	42a7           	clrl %sp@-
  ef605c:	4854           	pea %a4@
  ef605e:	4878 0001      	pea 0x1
  ef6062:	6100 0148      	bsrw 0xef61ac
  ef6066:	4fef 0014      	lea %sp@(20),%sp
  ef606a:	4a80           	tstl %d0
  ef606c:	6632           	bnes 0xef60a0
  ef606e:	42a7           	clrl %sp@-
  ef6070:	42a7           	clrl %sp@-
  ef6072:	42a7           	clrl %sp@-
  ef6074:	4854           	pea %a4@
  ef6076:	4878 0001      	pea 0x1
  ef607a:	6100 0130      	bsrw 0xef61ac
  ef607e:	4fef 0014      	lea %sp@(20),%sp
  ef6082:	4a80           	tstl %d0
  ef6084:	661a           	bnes 0xef60a0
  ef6086:	4878 0001      	pea 0x1
  ef608a:	42a7           	clrl %sp@-
  ef608c:	42a7           	clrl %sp@-
  ef608e:	4854           	pea %a4@
  ef6090:	4878 0001      	pea 0x1
  ef6094:	6100 0116      	bsrw 0xef61ac
  ef6098:	4fef 0014      	lea %sp@(20),%sp
  ef609c:	4a80           	tstl %d0
  ef609e:	672a           	beqs 0xef60ca
  ef60a0:	2d6d 0012 fffc 	movel %a5@(18),%fp@(-4)
  ef60a6:	0cae 0000 0100 	cmpil #256,%fp@(-4)
  ef60ac:	fffc 
  ef60ae:	6d26           	blts 0xef60d6
  ef60b0:	4878 0001      	pea 0x1
  ef60b4:	42a7           	clrl %sp@-
  ef60b6:	42a7           	clrl %sp@-
  ef60b8:	4854           	pea %a4@
  ef60ba:	4878 0101      	pea 0x101
  ef60be:	6100 00ec      	bsrw 0xef61ac
  ef60c2:	4fef 0014      	lea %sp@(20),%sp
  ef60c6:	4a80           	tstl %d0
  ef60c8:	6604           	bnes 0xef60ce
  ef60ca:	70ff           	moveq #-1,%d0
  ef60cc:	603c           	bras 0xef610a
  ef60ce:	04ae 0000 0100 	subil #256,%fp@(-4)
  ef60d4:	fffc 
  ef60d6:	202e fffc      	movel %fp@(-4),%d0
  ef60da:	53ae fffc      	subql #1,%fp@(-4)
  ef60de:	4a80           	tstl %d0
  ef60e0:	671e           	beqs 0xef6100
  ef60e2:	4878 0001      	pea 0x1
  ef60e6:	42a7           	clrl %sp@-
  ef60e8:	42a7           	clrl %sp@-
  ef60ea:	4854           	pea %a4@
  ef60ec:	4878 0081      	pea 0x81
  ef60f0:	6100 00ba      	bsrw 0xef61ac
  ef60f4:	4fef 0014      	lea %sp@(20),%sp
  ef60f8:	4a80           	tstl %d0
  ef60fa:	66da           	bnes 0xef60d6
  ef60fc:	70ff           	moveq #-1,%d0
  ef60fe:	600a           	bras 0xef610a
  ef6100:	42ac 0008      	clrl %a4@(8)
  ef6104:	42ac 000c      	clrl %a4@(12)
  ef6108:	7000           	moveq #0,%d0
  ef610a:	4cee 3000 fff4 	moveml %fp@(-12),%a4-%a5
  ef6110:	4e5e           	unlk %fp
  ef6112:	4e75           	rts
  ef6114:	4e56 fff8      	linkw %fp,#-8
  ef6118:	48d7 3000      	moveml %a4-%a5,%sp@
  ef611c:	2a6e 0008      	moveal %fp@(8),%a5
  ef6120:	286d 0006      	moveal %a5@(6),%a4
  ef6124:	0cac 0000 000a 	cmpil #10,%a4@(12)
  ef612a:	000c 
  ef612c:	6614           	bnes 0xef6142
  ef612e:	42a7           	clrl %sp@-
  ef6130:	42a7           	clrl %sp@-
  ef6132:	4878 0200      	pea 0x200
  ef6136:	4854           	pea %a4@
  ef6138:	4878 0010      	pea 0x10
  ef613c:	616e           	bsrs 0xef61ac
  ef613e:	4fef 0014      	lea %sp@(20),%sp
  ef6142:	42a7           	clrl %sp@-
  ef6144:	42a7           	clrl %sp@-
  ef6146:	42a7           	clrl %sp@-
  ef6148:	4854           	pea %a4@
  ef614a:	4878 0001      	pea 0x1
  ef614e:	615c           	bsrs 0xef61ac
  ef6150:	4fef 0014      	lea %sp@(20),%sp
  ef6154:	4cee 3000 fff8 	moveml %fp@(-8),%a4-%a5
  ef615a:	4e5e           	unlk %fp
  ef615c:	4e75           	rts
  ef615e:	4e56 fff8      	linkw %fp,#-8
  ef6162:	48d7 3000      	moveml %a4-%a5,%sp@
  ef6166:	2a6e 0008      	moveal %fp@(8),%a5
  ef616a:	286d 0006      	moveal %a5@(6),%a4
  ef616e:	4aac 0008      	tstl %a4@(8)
  ef6172:	6708           	beqs 0xef617c
  ef6174:	42ac 0008      	clrl %a4@(8)
  ef6178:	7000           	moveq #0,%d0
  ef617a:	6026           	bras 0xef61a2
  ef617c:	4878 0001      	pea 0x1
  ef6180:	2f2d 0022      	movel %a5@(34),%sp@-
  ef6184:	2f2d 0026      	movel %a5@(38),%sp@-
  ef6188:	4854           	pea %a4@
  ef618a:	0cae 0000 0002 	cmpil #2,%fp@(12)
  ef6190:	000c 
  ef6192:	6604           	bnes 0xef6198
  ef6194:	700a           	moveq #10,%d0
  ef6196:	6002           	bras 0xef619a
  ef6198:	7008           	moveq #8,%d0
  ef619a:	2f00           	movel %d0,%sp@-
  ef619c:	610e           	bsrs 0xef61ac
  ef619e:	4fef 0014      	lea %sp@(20),%sp
  ef61a2:	4cee 3000 fff8 	moveml %fp@(-8),%a4-%a5
  ef61a8:	4e5e           	unlk %fp
  ef61aa:	4e75           	rts
  ef61ac:	4e56 ffd8      	linkw %fp,#-40
  ef61b0:	48d7 30e0      	moveml %d5-%d7/%a4-%a5,%sp@
  ef61b4:	2a6e 000c      	moveal %fp@(12),%a5
  ef61b8:	286e 0014      	moveal %fp@(20),%a4
  ef61bc:	0cae 0000 000a 	cmpil #10,%fp@(8)
  ef61c2:	0008 
  ef61c4:	661c           	bnes 0xef61e2
  ef61c6:	b9fc 00f0 2010 	cmpal #15736848,%a4
  ef61cc:	6714           	beqs 0xef61e2
  ef61ce:	2f2e 0010      	movel %fp@(16),%sp@-
  ef61d2:	4879 00f0 2010 	pea 0xf02010
  ef61d8:	4854           	pea %a4@
  ef61da:	4eba c9d2      	jsr %pc@(0xef2bae)
  ef61de:	4fef 000c      	lea %sp@(12),%sp
  ef61e2:	4878 0006      	pea 0x6
  ef61e6:	486e fffa      	pea %fp@(-6)
  ef61ea:	4eba c99c      	jsr %pc@(0xef2b88)
  ef61ee:	504f           	addqw #8,%sp
  ef61f0:	1d6e 000b fffa 	moveb %fp@(11),%fp@(-6)
  ef61f6:	102d 0007      	moveb %a5@(7),%d0
  ef61fa:	022e ff1f fffb 	andib #31,%fp@(-5)
  ef6200:	7e07           	moveq #7,%d7
  ef6202:	c007           	andb %d7,%d0
  ef6204:	eb88           	lsll #5,%d0
  ef6206:	812e fffb      	orb %d0,%fp@(-5)
  ef620a:	202e 0010      	movel %fp@(16),%d0
  ef620e:	0680 0000 01ff 	addil #511,%d0
  ef6214:	0280 ffff fe00 	andil #-512,%d0
  ef621a:	4a80           	tstl %d0
  ef621c:	6c06           	bges 0xef6224
  ef621e:	0680 0000 01ff 	addil #511,%d0
  ef6224:	e080           	asrl #8,%d0
  ef6226:	e280           	asrl #1,%d0
  ef6228:	2a00           	movel %d0,%d5
  ef622a:	7210           	moveq #16,%d1
  ef622c:	e2a0           	asrl %d1,%d0
  ef622e:	1d40 fffc      	moveb %d0,%fp@(-4)
  ef6232:	2005           	movel %d5,%d0
  ef6234:	e080           	asrl #8,%d0
  ef6236:	0280 0000 00ff 	andil #255,%d0
  ef623c:	1d40 fffd      	moveb %d0,%fp@(-3)
  ef6240:	1005           	moveb %d5,%d0
  ef6242:	0280 0000 00ff 	andil #255,%d0
  ef6248:	1d40 fffe      	moveb %d0,%fp@(-2)
  ef624c:	0cae 0000 0101 	cmpil #257,%fp@(8)
  ef6252:	0008 
  ef6254:	6606           	bnes 0xef625c
  ef6256:	08ee 0007 ffff 	bset #7,%fp@(-1)
  ef625c:	0cae 0000 0081 	cmpil #129,%fp@(8)
  ef6262:	0008 
  ef6264:	6616           	bnes 0xef627c
  ef6266:	7e11           	moveq #17,%d7
  ef6268:	1d47 fffa      	moveb %d7,%fp@(-6)
  ef626c:	7ee0           	moveq #-32,%d7
  ef626e:	cf2e fffb      	andb %d7,%fp@(-5)
  ef6272:	7e01           	moveq #1,%d7
  ef6274:	8f2e fffb      	orb %d7,%fp@(-5)
  ef6278:	1d47 fffe      	moveb %d7,%fp@(-2)
  ef627c:	7001           	moveq #1,%d0
  ef627e:	2215           	movel %a5@,%d1
  ef6280:	e3a0           	asll %d1,%d0
  ef6282:	2f00           	movel %d0,%sp@-
  ef6284:	2f2d 0010      	movel %a5@(16),%sp@-
  ef6288:	4879 00f0 2010 	pea 0xf02010
  ef628e:	202e 0010      	movel %fp@(16),%d0
  ef6292:	0680 0000 01ff 	addil #511,%d0
  ef6298:	0280 ffff fe00 	andil #-512,%d0
  ef629e:	2f00           	movel %d0,%sp@-
  ef62a0:	486e fff0      	pea %fp@(-16)
  ef62a4:	486e fffa      	pea %fp@(-6)
  ef62a8:	4eba f68e      	jsr %pc@(0xef5938)
  ef62ac:	4fef 0018      	lea %sp@(24),%sp
  ef62b0:	2e00           	movel %d0,%d7
  ef62b2:	72ff           	moveq #-1,%d1
  ef62b4:	be81           	cmpl %d1,%d7
  ef62b6:	6606           	bnes 0xef62be
  ef62b8:	7000           	moveq #0,%d0
  ef62ba:	6000 010a      	braw 0xef63c6
  ef62be:	0cae 0000 0008 	cmpil #8,%fp@(8)
  ef62c4:	0008 
  ef62c6:	6624           	bnes 0xef62ec
  ef62c8:	b9fc 00f0 2010 	cmpal #15736848,%a4
  ef62ce:	671c           	beqs 0xef62ec
  ef62d0:	202e 0010      	movel %fp@(16),%d0
  ef62d4:	b087           	cmpl %d7,%d0
  ef62d6:	6d02           	blts 0xef62da
  ef62d8:	2007           	movel %d7,%d0
  ef62da:	2f00           	movel %d0,%sp@-
  ef62dc:	4854           	pea %a4@
  ef62de:	4879 00f0 2010 	pea 0xf02010
  ef62e4:	4eba c8c8      	jsr %pc@(0xef2bae)
  ef62e8:	4fef 000c      	lea %sp@(12),%sp
  ef62ec:	082e 0001 fff0 	btst #1,%fp@(-16)
  ef62f2:	6700 00a8      	beqw 0xef639c
  ef62f6:	4878 0006      	pea 0x6
  ef62fa:	486e fff4      	pea %fp@(-12)
  ef62fe:	4eba c888      	jsr %pc@(0xef2b88)
  ef6302:	504f           	addqw #8,%sp
  ef6304:	7c03           	moveq #3,%d6
  ef6306:	1d46 fff4      	moveb %d6,%fp@(-12)
  ef630a:	102d 0007      	moveb %a5@(7),%d0
  ef630e:	022e ff1f fff5 	andib #31,%fp@(-11)
  ef6314:	7c07           	moveq #7,%d6
  ef6316:	c006           	andb %d6,%d0
  ef6318:	eb88           	lsll #5,%d0
  ef631a:	812e fff5      	orb %d0,%fp@(-11)
  ef631e:	7c10           	moveq #16,%d6
  ef6320:	1d46 fff8      	moveb %d6,%fp@(-8)
  ef6324:	7001           	moveq #1,%d0
  ef6326:	2215           	movel %a5@,%d1
  ef6328:	e3a0           	asll %d1,%d0
  ef632a:	2f00           	movel %d0,%sp@-
  ef632c:	2f2d 0010      	movel %a5@(16),%sp@-
  ef6330:	4879 00f0 2000 	pea 0xf02000
  ef6336:	4878 0010      	pea 0x10
  ef633a:	486e ffec      	pea %fp@(-20)
  ef633e:	486e fff4      	pea %fp@(-12)
  ef6342:	4eba f5f4      	jsr %pc@(0xef5938)
  ef6346:	4fef 0018      	lea %sp@(24),%sp
  ef634a:	2c00           	movel %d0,%d6
  ef634c:	7210           	moveq #16,%d1
  ef634e:	bc81           	cmpl %d1,%d6
  ef6350:	671c           	beqs 0xef636e
  ef6352:	4aae 0018      	tstl %fp@(24)
  ef6356:	670c           	beqs 0xef6364
  ef6358:	4879 00ef 7f58 	pea 0xef7f58
  ef635e:	4eba bcfc      	jsr %pc@(0xef205c)
  ef6362:	584f           	addqw #4,%sp
  ef6364:	7201           	moveq #1,%d1
  ef6366:	2b41 0008      	movel %d1,%a5@(8)
  ef636a:	7000           	moveq #0,%d0
  ef636c:	6058           	bras 0xef63c6
  ef636e:	0839 0000 00f0 	btst #0,0xf02004
  ef6374:	2004 
  ef6376:	661c           	bnes 0xef6394
  ef6378:	4aae 0018      	tstl %fp@(24)
  ef637c:	6716           	beqs 0xef6394
  ef637e:	7000           	moveq #0,%d0
  ef6380:	3039 00f0 2004 	movew 0xf02004,%d0
  ef6386:	2f00           	movel %d0,%sp@-
  ef6388:	4879 00ef 7f69 	pea 0xef7f69
  ef638e:	4eba bccc      	jsr %pc@(0xef205c)
  ef6392:	504f           	addqw #8,%sp
  ef6394:	7201           	moveq #1,%d1
  ef6396:	2b41 0008      	movel %d1,%a5@(8)
  ef639a:	6028           	bras 0xef63c4
  ef639c:	beae 0010      	cmpl %fp@(16),%d7
  ef63a0:	6d10           	blts 0xef63b2
  ef63a2:	4aae 0010      	tstl %fp@(16)
  ef63a6:	6706           	beqs 0xef63ae
  ef63a8:	202e 0010      	movel %fp@(16),%d0
  ef63ac:	6018           	bras 0xef63c6
  ef63ae:	7001           	moveq #1,%d0
  ef63b0:	6014           	bras 0xef63c6
  ef63b2:	4aae 0018      	tstl %fp@(24)
  ef63b6:	670c           	beqs 0xef63c4
  ef63b8:	4879 00ef 7f77 	pea 0xef7f77
  ef63be:	4eba bc9c      	jsr %pc@(0xef205c)
  ef63c2:	584f           	addqw #4,%sp
  ef63c4:	2007           	movel %d7,%d0
  ef63c6:	4cee 30e0 ffd8 	moveml %fp@(-40),%d5-%d7/%a4-%a5
  ef63cc:	4e5e           	unlk %fp
  ef63ce:	4e75           	rts
  ef63d0:	4e56 fff4      	linkw %fp,#-12
  ef63d4:	48d7 3080      	moveml %d7/%a4-%a5,%sp@
  ef63d8:	2a6e 0008      	moveal %fp@(8),%a5
  ef63dc:	0cad 0000 0002 	cmpil #2,%a5@(10)
  ef63e2:	000a 
  ef63e4:	6c1a           	bges 0xef6400
  ef63e6:	202d 000a      	movel %a5@(10),%d0
  ef63ea:	e380           	asll #1,%d0
  ef63ec:	2040           	moveal %d0,%a0
  ef63ee:	d1fc 00ef 7f8c 	addal #15695756,%a0
  ef63f4:	3010           	movew %a0@,%d0
  ef63f6:	0280 0000 ffff 	andil #65535,%d0
  ef63fc:	2b40 000a      	movel %d0,%a5@(10)
  ef6400:	202d 000a      	movel %a5@(10),%d0
  ef6404:	0680 00eb 0000 	addil #15400960,%d0
  ef640a:	2840           	moveal %d0,%a4
  ef640c:	42a7           	clrl %sp@-
  ef640e:	4854           	pea %a4@
  ef6410:	4eba c8f0      	jsr %pc@(0xef2d02)
  ef6414:	504f           	addqw #8,%sp
  ef6416:	4a80           	tstl %d0
  ef6418:	6704           	beqs 0xef641e
  ef641a:	70ff           	moveq #-1,%d0
  ef641c:	6040           	bras 0xef645e
  ef641e:	102c 0004      	moveb %a4@(4),%d0
  ef6422:	42ad 0006      	clrl %a5@(6)
  ef6426:	4878 0002      	pea 0x2
  ef642a:	4878 0005      	pea 0x5
  ef642e:	4855           	pea %a5@
  ef6430:	6100 0146      	bsrw 0xef6578
  ef6434:	4fef 000c      	lea %sp@(12),%sp
  ef6438:	2e2d 0012      	movel %a5@(18),%d7
  ef643c:	2007           	movel %d7,%d0
  ef643e:	5387           	subql #1,%d7
  ef6440:	4a80           	tstl %d0
  ef6442:	6718           	beqs 0xef645c
  ef6444:	42ad 0026      	clrl %a5@(38)
  ef6448:	4878 0001      	pea 0x1
  ef644c:	4878 0005      	pea 0x5
  ef6450:	4855           	pea %a5@
  ef6452:	6100 0124      	bsrw 0xef6578
  ef6456:	4fef 000c      	lea %sp@(12),%sp
  ef645a:	60e0           	bras 0xef643c
  ef645c:	7000           	moveq #0,%d0
  ef645e:	4cee 3080 fff4 	moveml %fp@(-12),%d7/%a4-%a5
  ef6464:	4e5e           	unlk %fp
  ef6466:	4e75           	rts
  ef6468:	4e56 fffc      	linkw %fp,#-4
  ef646c:	2e8d           	movel %a5,%sp@
  ef646e:	2a6e 0008      	moveal %fp@(8),%a5
  ef6472:	42ad 0006      	clrl %a5@(6)
  ef6476:	4878 0002      	pea 0x2
  ef647a:	4878 0005      	pea 0x5
  ef647e:	4855           	pea %a5@
  ef6480:	6100 00f6      	bsrw 0xef6578
  ef6484:	4fef 000c      	lea %sp@(12),%sp
  ef6488:	2a6e fffc      	moveal %fp@(-4),%a5
  ef648c:	4e5e           	unlk %fp
  ef648e:	4e75           	rts
  ef6490:	4e56 ffec      	linkw %fp,#-20
  ef6494:	0cae 0000 0002 	cmpil #2,%fp@(12)
  ef649a:	000c 
  ef649c:	6604           	bnes 0xef64a2
  ef649e:	7001           	moveq #1,%d0
  ef64a0:	6002           	bras 0xef64a4
  ef64a2:	7002           	moveq #2,%d0
  ef64a4:	2d40 fffc      	movel %d0,%fp@(-4)
  ef64a8:	206e 0008      	moveal %fp@(8),%a0
  ef64ac:	2d68 0026 fff4 	movel %a0@(38),%fp@(-12)
  ef64b2:	2d6e fff4 fff0 	movel %fp@(-12),%fp@(-16)
  ef64b8:	2d68 0022 ffec 	movel %a0@(34),%fp@(-20)
  ef64be:	4aa8 0006      	tstl %a0@(6)
  ef64c2:	670a           	beqs 0xef64ce
  ef64c4:	42a8 0006      	clrl %a0@(6)
  ef64c8:	7000           	moveq #0,%d0
  ef64ca:	6000 00a8      	braw 0xef6574
  ef64ce:	4aae fff0      	tstl %fp@(-16)
  ef64d2:	6f4a           	bles 0xef651e
  ef64d4:	0cae 0000 5000 	cmpil #20480,%fp@(-16)
  ef64da:	fff0 
  ef64dc:	6f0e           	bles 0xef64ec
  ef64de:	206e 0008      	moveal %fp@(8),%a0
  ef64e2:	217c 0000 5000 	movel #20480,%a0@(38)
  ef64e8:	0026 
  ef64ea:	600a           	bras 0xef64f6
  ef64ec:	206e 0008      	moveal %fp@(8),%a0
  ef64f0:	216e fff0 0026 	movel %fp@(-16),%a0@(38)
  ef64f6:	42a7           	clrl %sp@-
  ef64f8:	2f2e fffc      	movel %fp@(-4),%sp@-
  ef64fc:	2f2e 0008      	movel %fp@(8),%sp@-
  ef6500:	6176           	bsrs 0xef6578
  ef6502:	4fef 000c      	lea %sp@(12),%sp
  ef6506:	2d40 fff8      	movel %d0,%fp@(-8)
  ef650a:	6f12           	bles 0xef651e
  ef650c:	206e 0008      	moveal %fp@(8),%a0
  ef6510:	d1a8 0022      	addl %d0,%a0@(34)
  ef6514:	202e fff8      	movel %fp@(-8),%d0
  ef6518:	91ae fff0      	subl %d0,%fp@(-16)
  ef651c:	60b0           	bras 0xef64ce
  ef651e:	0cae ffff ffff 	cmpil #-1,%fp@(-8)
  ef6524:	fff8 
  ef6526:	6604           	bnes 0xef652c
  ef6528:	70ff           	moveq #-1,%d0
  ef652a:	6048           	bras 0xef6574
  ef652c:	4aae fff8      	tstl %fp@(-8)
  ef6530:	6614           	bnes 0xef6546
  ef6532:	202e fff0      	movel %fp@(-16),%d0
  ef6536:	b0ae fff4      	cmpl %fp@(-12),%d0
  ef653a:	670a           	beqs 0xef6546
  ef653c:	206e 0008      	moveal %fp@(8),%a0
  ef6540:	7201           	moveq #1,%d1
  ef6542:	2141 0006      	movel %d1,%a0@(6)
  ef6546:	4aae fff0      	tstl %fp@(-16)
  ef654a:	6c04           	bges 0xef6550
  ef654c:	42ae fff0      	clrl %fp@(-16)
  ef6550:	202e fff4      	movel %fp@(-12),%d0
  ef6554:	90ae fff0      	subl %fp@(-16),%d0
  ef6558:	2d40 fff8      	movel %d0,%fp@(-8)
  ef655c:	206e 0008      	moveal %fp@(8),%a0
  ef6560:	216e fff4 0026 	movel %fp@(-12),%a0@(38)
  ef6566:	206e 0008      	moveal %fp@(8),%a0
  ef656a:	216e ffec 0022 	movel %fp@(-20),%a0@(34)
  ef6570:	202e fff8      	movel %fp@(-8),%d0
  ef6574:	4e5e           	unlk %fp
  ef6576:	4e75           	rts
  ef6578:	4e56 ffe8      	linkw %fp,#-24
  ef657c:	48d7 3880      	moveml %d7/%a3-%a5,%sp@
  ef6580:	2a6e 0008      	moveal %fp@(8),%a5
  ef6584:	287c 00f0 0100 	moveal #15728896,%a4
  ef658a:	202d 000a      	movel %a5@(10),%d0
  ef658e:	0680 00eb 0000 	addil #15400960,%d0
  ef6594:	2640           	moveal %d0,%a3
  ef6596:	4878 0012      	pea 0x12
  ef659a:	4854           	pea %a4@
  ef659c:	4eba c5ea      	jsr %pc@(0xef2b88)
  ef65a0:	504f           	addqw #8,%sp
  ef65a2:	08ec 0006 0001 	bset #6,%a4@(1)
  ef65a8:	08ec 0007 0001 	bset #7,%a4@(1)
  ef65ae:	102e 000f      	moveb %fp@(15),%d0
  ef65b2:	7ef0           	moveq #-16,%d7
  ef65b4:	cf2c 0001      	andb %d7,%a4@(1)
  ef65b8:	7e0f           	moveq #15,%d7
  ef65ba:	c007           	andb %d7,%d0
  ef65bc:	812c 0001      	orb %d0,%a4@(1)
  ef65c0:	102e 0013      	moveb %fp@(19),%d0
  ef65c4:	7ec0           	moveq #-64,%d7
  ef65c6:	cf14           	andb %d7,%a4@
  ef65c8:	7e3f           	moveq #63,%d7
  ef65ca:	c007           	andb %d7,%d0
  ef65cc:	8114           	orb %d0,%a4@
  ef65ce:	202d 000e      	movel %a5@(14),%d0
  ef65d2:	7e03           	moveq #3,%d7
  ef65d4:	c087           	andl %d7,%d0
  ef65d6:	7ef8           	moveq #-8,%d7
  ef65d8:	cf2c 0006      	andb %d7,%a4@(6)
  ef65dc:	7e07           	moveq #7,%d7
  ef65de:	c007           	andb %d7,%d0
  ef65e0:	812c 0006      	orb %d0,%a4@(6)
  ef65e4:	7ef8           	moveq #-8,%d7
  ef65e6:	cf2c 0007      	andb %d7,%a4@(7)
  ef65ea:	7e05           	moveq #5,%d7
  ef65ec:	8f2c 0007      	orb %d7,%a4@(7)
  ef65f0:	202e 000c      	movel %fp@(12),%d0
  ef65f4:	7e01           	moveq #1,%d7
  ef65f6:	b087           	cmpl %d7,%d0
  ef65f8:	6716           	beqs 0xef6610
  ef65fa:	7e02           	moveq #2,%d7
  ef65fc:	b087           	cmpl %d7,%d0
  ef65fe:	663a           	bnes 0xef663a
  ef6600:	396d 0028 0008 	movew %a5@(40),%a4@(8)
  ef6606:	08d4 0007      	bset #7,%a4@
  ef660a:	08d4 0006      	bset #6,%a4@
  ef660e:	6030           	bras 0xef6640
  ef6610:	396d 0028 0008 	movew %a5@(40),%a4@(8)
  ef6616:	7000           	moveq #0,%d0
  ef6618:	302c 0008      	movew %a4@(8),%d0
  ef661c:	2f00           	movel %d0,%sp@-
  ef661e:	4879 00f0 2000 	pea 0xf02000
  ef6624:	2f2d 0022      	movel %a5@(34),%sp@-
  ef6628:	4eba c584      	jsr %pc@(0xef2bae)
  ef662c:	4fef 000c      	lea %sp@(12),%sp
  ef6630:	08d4 0007      	bset #7,%a4@
  ef6634:	08d4 0006      	bset #6,%a4@
  ef6638:	6006           	bras 0xef6640
  ef663a:	7e01           	moveq #1,%d7
  ef663c:	3947 0008      	movew %d7,%a4@(8)
  ef6640:	397c 2000 000a 	movew #8192,%a4@(10)
  ef6646:	082b 0003 0005 	btst #3,%a3@(5)
  ef664c:	670c           	beqs 0xef665a
  ef664e:	203c 00f0 0000 	movel #15728640,%d0
  ef6654:	7210           	moveq #16,%d1
  ef6656:	e2a0           	asrl %d1,%d0
  ef6658:	6004           	bras 0xef665e
  ef665a:	7000           	moveq #0,%d0
  ef665c:	e880           	asrl #4,%d0
  ef665e:	3940 000c      	movew %d0,%a4@(12)
  ef6662:	082b 0003 0005 	btst #3,%a3@(5)
  ef6668:	7000           	moveq #0,%d0
  ef666a:	2d40 fff8      	movel %d0,%fp@(-8)
  ef666e:	e080           	asrl #8,%d0
  ef6670:	1680           	moveb %d0,%a3@
  ef6672:	176e fffb 0001 	moveb %fp@(-5),%a3@(1)
  ef6678:	7e01           	moveq #1,%d7
  ef667a:	1747 0002      	moveb %d7,%a3@(2)
  ef667e:	177c 0100 0003 	moveb #0,%a3@(3)
  ef6684:	177c 0080 0005 	moveb #-128,%a3@(5)
  ef668a:	7e0f           	moveq #15,%d7
  ef668c:	5387           	subql #1,%d7
  ef668e:	6efc           	bgts 0xef668c
  ef6690:	082b 0007 0005 	btst #7,%a3@(5)
  ef6696:	66f2           	bnes 0xef668a
  ef6698:	7000           	moveq #0,%d0
  ef669a:	102c 0002      	moveb %a4@(2),%d0
  ef669e:	2d40 fffc      	movel %d0,%fp@(-4)
  ef66a2:	6740           	beqs 0xef66e4
  ef66a4:	0cae 0000 0022 	cmpil #34,%fp@(-4)
  ef66aa:	fffc 
  ef66ac:	6736           	beqs 0xef66e4
  ef66ae:	0cae 0000 0023 	cmpil #35,%fp@(-4)
  ef66b4:	fffc 
  ef66b6:	672c           	beqs 0xef66e4
  ef66b8:	0cae 0000 001e 	cmpil #30,%fp@(-4)
  ef66be:	fffc 
  ef66c0:	670a           	beqs 0xef66cc
  ef66c2:	0cae 0000 0031 	cmpil #49,%fp@(-4)
  ef66c8:	fffc 
  ef66ca:	6604           	bnes 0xef66d0
  ef66cc:	7000           	moveq #0,%d0
  ef66ce:	603e           	bras 0xef670e
  ef66d0:	2f2e fffc      	movel %fp@(-4),%sp@-
  ef66d4:	4879 00ef 7f94 	pea 0xef7f94
  ef66da:	4eba b980      	jsr %pc@(0xef205c)
  ef66de:	504f           	addqw #8,%sp
  ef66e0:	70ff           	moveq #-1,%d0
  ef66e2:	602a           	bras 0xef670e
  ef66e4:	0cae 0000 0002 	cmpil #2,%fp@(12)
  ef66ea:	000c 
  ef66ec:	661a           	bnes 0xef6708
  ef66ee:	7000           	moveq #0,%d0
  ef66f0:	302c 0010      	movew %a4@(16),%d0
  ef66f4:	2f00           	movel %d0,%sp@-
  ef66f6:	2f2d 0022      	movel %a5@(34),%sp@-
  ef66fa:	4879 00f0 2000 	pea 0xf02000
  ef6700:	4eba c4ac      	jsr %pc@(0xef2bae)
  ef6704:	4fef 000c      	lea %sp@(12),%sp
  ef6708:	7000           	moveq #0,%d0
  ef670a:	302c 0010      	movew %a4@(16),%d0
  ef670e:	4cee 3880 ffe8 	moveml %fp@(-24),%d7/%a3-%a5
  ef6714:	4e5e           	unlk %fp
  ef6716:	4e75           	rts
  ef6718:	4e56 ffbc      	linkw %fp,#-68
  ef671c:	48d7 20c0      	moveml %d6-%d7/%a5,%sp@
  ef6720:	2a6e 0008      	moveal %fp@(8),%a5
  ef6724:	7cff           	moveq #-1,%d6
  ef6726:	2d6d 0086 ffdc 	movel %a5@(134),%fp@(-36)
  ef672c:	2d6d 008a ffe0 	movel %a5@(138),%fp@(-32)
  ef6732:	2d6d 008e ffe4 	movel %a5@(142),%fp@(-28)
  ef6738:	486e ffd2      	pea %fp@(-46)
  ef673c:	206d 0096      	moveal %a5@(150),%a0
  ef6740:	2068 000a      	moveal %a0@(10),%a0
  ef6744:	4e90           	jsr %a0@
  ef6746:	584f           	addqw #4,%sp
  ef6748:	4a80           	tstl %d0
  ef674a:	666a           	bnes 0xef67b6
  ef674c:	7e01           	moveq #1,%d7
  ef674e:	2d47 ffce      	movel %d7,%fp@(-50)
  ef6752:	2d7c 0000 4000 	movel #16384,%fp@(-54)
  ef6758:	ffca 
  ef675a:	2d6e ffce fff0 	movel %fp@(-50),%fp@(-16)
  ef6760:	2d7c 0000 8000 	movel #32768,%fp@(-8)
  ef6766:	fff8 
  ef6768:	2d6e ffca fff4 	movel %fp@(-54),%fp@(-12)
  ef676e:	4878 0001      	pea 0x1
  ef6772:	486e ffd2      	pea %fp@(-46)
  ef6776:	206d 0096      	moveal %a5@(150),%a0
  ef677a:	2068 0012      	moveal %a0@(18),%a0
  ef677e:	4e90           	jsr %a0@
  ef6780:	504f           	addqw #8,%sp
  ef6782:	2e00           	movel %d0,%d7
  ef6784:	6d20           	blts 0xef67a6
  ef6786:	4a87           	tstl %d7
  ef6788:	6612           	bnes 0xef679c
  ef678a:	0cae 0000 0001 	cmpil #1,%fp@(-50)
  ef6790:	ffce 
  ef6792:	6712           	beqs 0xef67a6
  ef6794:	2c3c 0000 4000 	movel #16384,%d6
  ef679a:	600a           	bras 0xef67a6
  ef679c:	52ae ffce      	addql #1,%fp@(-50)
  ef67a0:	dfae ffca      	addl %d7,%fp@(-54)
  ef67a4:	60b4           	bras 0xef675a
  ef67a6:	486e ffd2      	pea %fp@(-46)
  ef67aa:	206d 0096      	moveal %a5@(150),%a0
  ef67ae:	2068 000e      	moveal %a0@(14),%a0
  ef67b2:	4e90           	jsr %a0@
  ef67b4:	584f           	addqw #4,%sp
  ef67b6:	2006           	movel %d6,%d0
  ef67b8:	4cee 20c0 ffbc 	moveml %fp@(-68),%d6-%d7/%a5
  ef67be:	4e5e           	unlk %fp
  ef67c0:	4e75           	rts
  ef67c2:	0000 4e56      	orib #86,%d0
  ef67c6:	ffc4           	0177704
  ef67c8:	2e8d           	movel %a5,%sp@
  ef67ca:	2a6e 0008      	moveal %fp@(8),%a5
  ef67ce:	2d6d 0086 ffdc 	movel %a5@(134),%fp@(-36)
  ef67d4:	2d6d 008a ffe0 	movel %a5@(138),%fp@(-32)
  ef67da:	2d6d 008e ffe4 	movel %a5@(142),%fp@(-28)
  ef67e0:	486e ffd2      	pea %fp@(-46)
  ef67e4:	206d 0096      	moveal %a5@(150),%a0
  ef67e8:	2068 000a      	moveal %a0@(10),%a0
  ef67ec:	4e90           	jsr %a0@
  ef67ee:	584f           	addqw #4,%sp
  ef67f0:	4a80           	tstl %d0
  ef67f2:	6648           	bnes 0xef683c
  ef67f4:	7201           	moveq #1,%d1
  ef67f6:	2d41 ffce      	movel %d1,%fp@(-50)
  ef67fa:	2d7c 0000 4000 	movel #16384,%fp@(-54)
  ef6800:	ffca 
  ef6802:	0cae 0000 0010 	cmpil #16,%fp@(-50)
  ef6808:	ffce 
  ef680a:	6e42           	bgts 0xef684e
  ef680c:	2d6e ffce fff0 	movel %fp@(-50),%fp@(-16)
  ef6812:	2d7c 0000 0200 	movel #512,%fp@(-8)
  ef6818:	fff8 
  ef681a:	2d6e ffca fff4 	movel %fp@(-54),%fp@(-12)
  ef6820:	4878 0001      	pea 0x1
  ef6824:	486e ffd2      	pea %fp@(-46)
  ef6828:	206d 0096      	moveal %a5@(150),%a0
  ef682c:	2068 0012      	moveal %a0@(18),%a0
  ef6830:	4e90           	jsr %a0@
  ef6832:	504f           	addqw #8,%sp
  ef6834:	222e fff8      	movel %fp@(-8),%d1
  ef6838:	b280           	cmpl %d0,%d1
  ef683a:	6704           	beqs 0xef6840
  ef683c:	70ff           	moveq #-1,%d0
  ef683e:	6014           	bras 0xef6854
  ef6840:	52ae ffce      	addql #1,%fp@(-50)
  ef6844:	06ae 0000 0200 	addil #512,%fp@(-54)
  ef684a:	ffca 
  ef684c:	60b4           	bras 0xef6802
  ef684e:	203c 0000 4000 	movel #16384,%d0
  ef6854:	2a6e ffc4      	moveal %fp@(-60),%a5
  ef6858:	4e5e           	unlk %fp
  ef685a:	4e75           	rts
  ef685c:	4e56 ffdc      	linkw %fp,#-36
  ef6860:	48d7 38f8      	moveml %d3-%d7/%a3-%a5,%sp@
  ef6864:	42ae fffc      	clrl %fp@(-4)
  ef6868:	202e 0014      	movel %fp@(20),%d0
  ef686c:	e280           	asrl #1,%d0
  ef686e:	7a0f           	moveq #15,%d5
  ef6870:	c085           	andl %d5,%d0
  ef6872:	2d40 0014      	movel %d0,%fp@(20)
  ef6876:	206e 0008      	moveal %fp@(8),%a0
  ef687a:	2068 0010      	moveal %a0@(16),%a0
  ef687e:	2a10           	movel %a0@,%d5
  ef6880:	536e 001e      	subqw #1,%fp@(30)
  ef6884:	6d00 027a      	bltw 0xef6b00
  ef6888:	206e 0018      	moveal %fp@(24),%a0
  ef688c:	2028 0004      	movel %a0@(4),%d0
  ef6890:	d1ae 000c      	addl %d0,%fp@(12)
  ef6894:	2028 0008      	movel %a0@(8),%d0
  ef6898:	d1ae 0010      	addl %d0,%fp@(16)
  ef689c:	206e 0008      	moveal %fp@(8),%a0
  ef68a0:	2668 0010      	moveal %a0@(16),%a3
  ef68a4:	302b 0002      	movew %a3@(2),%d0
  ef68a8:	222b 000c      	movel %a3@(12),%d1
  ef68ac:	d2ae 0010      	addl %fp@(16),%d1
  ef68b0:	c1c1           	mulsw %d1,%d0
  ef68b2:	d0ab 0004      	addl %a3@(4),%d0
  ef68b6:	222b 0008      	movel %a3@(8),%d1
  ef68ba:	d2ae 000c      	addl %fp@(12),%d1
  ef68be:	e681           	asrl #3,%d1
  ef68c0:	d081           	addl %d1,%d0
  ef68c2:	78fe           	moveq #-2,%d4
  ef68c4:	c084           	andl %d4,%d0
  ef68c6:	2840           	moveal %d0,%a4
  ef68c8:	202b 0008      	movel %a3@(8),%d0
  ef68cc:	d0ae 000c      	addl %fp@(12),%d0
  ef68d0:	780f           	moveq #15,%d4
  ef68d2:	c084           	andl %d4,%d0
  ef68d4:	2800           	movel %d0,%d4
  ef68d6:	206e 0018      	moveal %fp@(24),%a0
  ef68da:	2650           	moveal %a0@,%a3
  ef68dc:	200b           	movel %a3,%d0
  ef68de:	6700 0216      	beqw 0xef6af6
  ef68e2:	2e2b 0004      	movel %a3@(4),%d7
  ef68e6:	2c2b 0008      	movel %a3@(8),%d6
  ef68ea:	266b 0010      	moveal %a3@(16),%a3
  ef68ee:	2a6b 0004      	moveal %a3@(4),%a5
  ef68f2:	202e 0014      	movel %fp@(20),%d0
  ef68f6:	0c80 0000 000f 	cmpil #15,%d0
  ef68fc:	6200 01f4      	bhiw 0xef6af2
  ef6900:	d040           	addw %d0,%d0
  ef6902:	303b 0006      	movew %pc@(0xef690a,%d0:w),%d0
  ef6906:	4efb 0002      	jmp %pc@(0xef690a,%d0:w)
  ef690a:	0094 01e8 01e8 	oril #31982056,%a4@
  ef6910:	0166           	bchg %d0,%fp@-
  ef6912:	01e8 0058      	bset %d0,%a0@(88)
  ef6916:	0020 01e8      	orib #-24,%a0@-
  ef691a:	01e8 01e8      	bset %d0,%a0@(488)
  ef691e:	01e8 01e8      	bset %d0,%a0@(488)
  ef6922:	0110           	btst %d0,%a0@
  ef6924:	01e8 01b4      	bset %d0,%a0@(436)
  ef6928:	00d4           	0324
  ef692a:	2004           	movel %d4,%d0
  ef692c:	d087           	addl %d7,%d0
  ef692e:	7210           	moveq #16,%d1
  ef6930:	b081           	cmpl %d1,%d0
  ef6932:	6e14           	bgts 0xef6948
  ef6934:	600a           	bras 0xef6940
  ef6936:	7000           	moveq #0,%d0
  ef6938:	301d           	movew %a5@+,%d0
  ef693a:	e8a8           	lsrl %d4,%d0
  ef693c:	b154           	eorw %d0,%a4@
  ef693e:	d9c5           	addal %d5,%a4
  ef6940:	51ce fff4      	dbf %d6,0xef6936
  ef6944:	6000 01b0      	braw 0xef6af6
  ef6948:	7010           	moveq #16,%d0
  ef694a:	9084           	subl %d4,%d0
  ef694c:	2800           	movel %d0,%d4
  ef694e:	600a           	bras 0xef695a
  ef6950:	7000           	moveq #0,%d0
  ef6952:	301d           	movew %a5@+,%d0
  ef6954:	e9a8           	lsll %d4,%d0
  ef6956:	b194           	eorl %d0,%a4@
  ef6958:	d9c5           	addal %d5,%a4
  ef695a:	51ce fff4      	dbf %d6,0xef6950
  ef695e:	6000 0196      	braw 0xef6af6
  ef6962:	2004           	movel %d4,%d0
  ef6964:	d087           	addl %d7,%d0
  ef6966:	7210           	moveq #16,%d1
  ef6968:	b081           	cmpl %d1,%d0
  ef696a:	6e18           	bgts 0xef6984
  ef696c:	363c 8000      	movew #-32768,%d3
  ef6970:	5387           	subql #1,%d7
  ef6972:	ee63           	asrw %d7,%d3
  ef6974:	e86b           	lsrw %d4,%d3
  ef6976:	6004           	bras 0xef697c
  ef6978:	b754           	eorw %d3,%a4@
  ef697a:	d9c5           	addal %d5,%a4
  ef697c:	51ce fffa      	dbf %d6,0xef6978
  ef6980:	6000 0174      	braw 0xef6af6
  ef6984:	263c 8000 0000 	movel #-2147483648,%d3
  ef698a:	5387           	subql #1,%d7
  ef698c:	eea3           	asrl %d7,%d3
  ef698e:	e8ab           	lsrl %d4,%d3
  ef6990:	6004           	bras 0xef6996
  ef6992:	b794           	eorl %d3,%a4@
  ef6994:	d9c5           	addal %d5,%a4
  ef6996:	51ce fffa      	dbf %d6,0xef6992
  ef699a:	6000 015a      	braw 0xef6af6
  ef699e:	2004           	movel %d4,%d0
  ef69a0:	d087           	addl %d7,%d0
  ef69a2:	7210           	moveq #16,%d1
  ef69a4:	b081           	cmpl %d1,%d0
  ef69a6:	6e1a           	bgts 0xef69c2
  ef69a8:	363c 8000      	movew #-32768,%d3
  ef69ac:	5387           	subql #1,%d7
  ef69ae:	ee63           	asrw %d7,%d3
  ef69b0:	e86b           	lsrw %d4,%d3
  ef69b2:	4643           	notw %d3
  ef69b4:	6004           	bras 0xef69ba
  ef69b6:	c754           	andw %d3,%a4@
  ef69b8:	d9c5           	addal %d5,%a4
  ef69ba:	51ce fffa      	dbf %d6,0xef69b6
  ef69be:	6000 0136      	braw 0xef6af6
  ef69c2:	263c 8000 0000 	movel #-2147483648,%d3
  ef69c8:	5387           	subql #1,%d7
  ef69ca:	eea3           	asrl %d7,%d3
  ef69cc:	e8ab           	lsrl %d4,%d3
  ef69ce:	4683           	notl %d3
  ef69d0:	6004           	bras 0xef69d6
  ef69d2:	c794           	andl %d3,%a4@
  ef69d4:	d9c5           	addal %d5,%a4
  ef69d6:	51ce fffa      	dbf %d6,0xef69d2
  ef69da:	6000 011a      	braw 0xef6af6
  ef69de:	2004           	movel %d4,%d0
  ef69e0:	d087           	addl %d7,%d0
  ef69e2:	7210           	moveq #16,%d1
  ef69e4:	b081           	cmpl %d1,%d0
  ef69e6:	6e18           	bgts 0xef6a00
  ef69e8:	363c 8000      	movew #-32768,%d3
  ef69ec:	5387           	subql #1,%d7
  ef69ee:	ee63           	asrw %d7,%d3
  ef69f0:	e86b           	lsrw %d4,%d3
  ef69f2:	6004           	bras 0xef69f8
  ef69f4:	8754           	orw %d3,%a4@
  ef69f6:	d9c5           	addal %d5,%a4
  ef69f8:	51ce fffa      	dbf %d6,0xef69f4
  ef69fc:	6000 00f8      	braw 0xef6af6
  ef6a00:	263c 8000 0000 	movel #-2147483648,%d3
  ef6a06:	5387           	subql #1,%d7
  ef6a08:	eea3           	asrl %d7,%d3
  ef6a0a:	e8ab           	lsrl %d4,%d3
  ef6a0c:	6004           	bras 0xef6a12
  ef6a0e:	8794           	orl %d3,%a4@
  ef6a10:	d9c5           	addal %d5,%a4
  ef6a12:	51ce fffa      	dbf %d6,0xef6a0e
  ef6a16:	6000 00de      	braw 0xef6af6
  ef6a1a:	2004           	movel %d4,%d0
  ef6a1c:	d087           	addl %d7,%d0
  ef6a1e:	7210           	moveq #16,%d1
  ef6a20:	b081           	cmpl %d1,%d0
  ef6a22:	6e22           	bgts 0xef6a46
  ef6a24:	363c 8000      	movew #-32768,%d3
  ef6a28:	5387           	subql #1,%d7
  ef6a2a:	ee63           	asrw %d7,%d3
  ef6a2c:	e86b           	lsrw %d4,%d3
  ef6a2e:	4643           	notw %d3
  ef6a30:	600c           	bras 0xef6a3e
  ef6a32:	c754           	andw %d3,%a4@
  ef6a34:	7000           	moveq #0,%d0
  ef6a36:	301d           	movew %a5@+,%d0
  ef6a38:	e8a8           	lsrl %d4,%d0
  ef6a3a:	8154           	orw %d0,%a4@
  ef6a3c:	d9c5           	addal %d5,%a4
  ef6a3e:	51ce fff2      	dbf %d6,0xef6a32
  ef6a42:	6000 00b2      	braw 0xef6af6
  ef6a46:	263c 8000 0000 	movel #-2147483648,%d3
  ef6a4c:	5387           	subql #1,%d7
  ef6a4e:	eea3           	asrl %d7,%d3
  ef6a50:	e8ab           	lsrl %d4,%d3
  ef6a52:	4683           	notl %d3
  ef6a54:	7010           	moveq #16,%d0
  ef6a56:	9084           	subl %d4,%d0
  ef6a58:	2800           	movel %d0,%d4
  ef6a5a:	600c           	bras 0xef6a68
  ef6a5c:	c794           	andl %d3,%a4@
  ef6a5e:	7000           	moveq #0,%d0
  ef6a60:	301d           	movew %a5@+,%d0
  ef6a62:	e9a8           	lsll %d4,%d0
  ef6a64:	8194           	orl %d0,%a4@
  ef6a66:	d9c5           	addal %d5,%a4
  ef6a68:	51ce fff2      	dbf %d6,0xef6a5c
  ef6a6c:	6000 0088      	braw 0xef6af6
  ef6a70:	2004           	movel %d4,%d0
  ef6a72:	d087           	addl %d7,%d0
  ef6a74:	7210           	moveq #16,%d1
  ef6a76:	b081           	cmpl %d1,%d0
  ef6a78:	6e1e           	bgts 0xef6a98
  ef6a7a:	363c 8000      	movew #-32768,%d3
  ef6a7e:	5387           	subql #1,%d7
  ef6a80:	ee63           	asrw %d7,%d3
  ef6a82:	e86b           	lsrw %d4,%d3
  ef6a84:	600c           	bras 0xef6a92
  ef6a86:	8754           	orw %d3,%a4@
  ef6a88:	7000           	moveq #0,%d0
  ef6a8a:	301d           	movew %a5@+,%d0
  ef6a8c:	e8a8           	lsrl %d4,%d0
  ef6a8e:	b154           	eorw %d0,%a4@
  ef6a90:	d9c5           	addal %d5,%a4
  ef6a92:	51ce fff2      	dbf %d6,0xef6a86
  ef6a96:	605e           	bras 0xef6af6
  ef6a98:	263c 8000 0000 	movel #-2147483648,%d3
  ef6a9e:	5387           	subql #1,%d7
  ef6aa0:	eea3           	asrl %d7,%d3
  ef6aa2:	e8ab           	lsrl %d4,%d3
  ef6aa4:	7010           	moveq #16,%d0
  ef6aa6:	9084           	subl %d4,%d0
  ef6aa8:	2800           	movel %d0,%d4
  ef6aaa:	600c           	bras 0xef6ab8
  ef6aac:	8794           	orl %d3,%a4@
  ef6aae:	7000           	moveq #0,%d0
  ef6ab0:	301d           	movew %a5@+,%d0
  ef6ab2:	e9a8           	lsll %d4,%d0
  ef6ab4:	b194           	eorl %d0,%a4@
  ef6ab6:	d9c5           	addal %d5,%a4
  ef6ab8:	51ce fff2      	dbf %d6,0xef6aac
  ef6abc:	6038           	bras 0xef6af6
  ef6abe:	2004           	movel %d4,%d0
  ef6ac0:	d087           	addl %d7,%d0
  ef6ac2:	7210           	moveq #16,%d1
  ef6ac4:	b081           	cmpl %d1,%d0
  ef6ac6:	6e12           	bgts 0xef6ada
  ef6ac8:	600a           	bras 0xef6ad4
  ef6aca:	7000           	moveq #0,%d0
  ef6acc:	301d           	movew %a5@+,%d0
  ef6ace:	e8a8           	lsrl %d4,%d0
  ef6ad0:	8154           	orw %d0,%a4@
  ef6ad2:	d9c5           	addal %d5,%a4
  ef6ad4:	51ce fff4      	dbf %d6,0xef6aca
  ef6ad8:	601c           	bras 0xef6af6
  ef6ada:	7010           	moveq #16,%d0
  ef6adc:	9084           	subl %d4,%d0
  ef6ade:	2800           	movel %d0,%d4
  ef6ae0:	600a           	bras 0xef6aec
  ef6ae2:	7000           	moveq #0,%d0
  ef6ae4:	301d           	movew %a5@+,%d0
  ef6ae6:	e9a8           	lsll %d4,%d0
  ef6ae8:	8194           	orl %d0,%a4@
  ef6aea:	d9c5           	addal %d5,%a4
  ef6aec:	51ce fff4      	dbf %d6,0xef6ae2
  ef6af0:	6004           	bras 0xef6af6
  ef6af2:	4278 0001      	clrw 0x1
  ef6af6:	720c           	moveq #12,%d1
  ef6af8:	d3ae 0018      	addl %d1,%fp@(24)
  ef6afc:	6000 fd82      	braw 0xef6880
  ef6b00:	202e fffc      	movel %fp@(-4),%d0
  ef6b04:	4cee 38f8 ffdc 	moveml %fp@(-36),%d3-%d7/%a3-%a5
  ef6b0a:	4e5e           	unlk %fp
  ef6b0c:	4e75           	rts
  ef6b0e:	0000 4e56      	orib #86,%d0
  ef6b12:	fff4           	0177764
  ef6b14:	48d7 3080      	moveml %d7/%a4-%a5,%sp@
pwd
ef6b18:	2a6e 0008      	moveal %fp@(8),%a5
  ef6b1c:	286e 000c      	moveal %fp@(12),%a4
  ef6b20:	2e2e 0010      	movel %fp@(16),%d7
  ef6b24:	2007           	movel %d7,%d0
  ef6b26:	5387           	subql #1,%d7
  ef6b28:	4a80           	tstl %d0
  ef6b2a:	670a           	beqs 0xef6b36
  ef6b2c:	101d           	moveb %a5@+,%d0
  ef6b2e:	b01c           	cmpb %a4@+,%d0
  ef6b30:	67f2           	beqs 0xef6b24
  ef6b32:	7001           	moveq #1,%d0
  ef6b34:	6002           	bras 0xef6b38
  ef6b36:	7000           	moveq #0,%d0
  ef6b38:	4cee 3080 fff4 	moveml %fp@(-12),%d7/%a4-%a5
  ef6b3e:	4e5e           	unlk %fp
  ef6b40:	4e75           	rts
  ef6b42:	0000 4028      	orib #40,%d0
  ef6b46:	2329 7665      	movel %a1@(30309),%a1@-
  ef6b4a:	7273           	moveq #115,%d1
  ef6b4c:	696f           	bvss 0xef6bbd
  ef6b4e:	6e2e           	bgts 0xef6b7e
  ef6b50:	6320           	blss 0xef6b72
  ef6b52:	322e 3820      	movew %fp@(14368),%d1
  ef6b56:	3835 2f30 322f 	movew %a5@(322f3139,%d2:l:8),%d4
  ef6b5c:	3139 
  ef6b5e:	2043           	moveal %d3,%a0
  ef6b60:	6f70           	bles 0xef6bd2
  ef6b62:	7972 6967 6874 	mvsw %a2@(00006874)@(20286329),%d4
  ef6b68:	2028 6329 
  ef6b6c:	2031 3938 3520 	movel %a1@(35206279,%d3:l),%d0
  ef6b72:	6279 
  ef6b74:	2053           	moveal %a3@,%a0
  ef6b76:	756e 204d      	mvsw %fp@(8269),%d2
  ef6b7a:	6963           	bvss 0xef6bdf
  ef6b7c:	726f           	moveq #111,%d1
  ef6b7e:	7379 7374 656d 	mvsw 0x7374656d,%d1
  ef6b84:	732c 2049      	mvsb %a4@(8265),%d1
  ef6b88:	6e63           	bgts 0xef6bed
  ef6b8a:	2e00           	movel %d0,%d7
  ef6b8c:	5265           	addqw #1,%a5@-
  ef6b8e:	7620           	moveq #32,%d3
  ef6b90:	5200           	addqb #1,%d0
  ef6b92:	0000 00ec      	orib #-20,%d0
  ef6b96:	0000 0001      	orib #1,%d0
  ef6b9a:	ec00           	asrb #6,%d0
  ef6b9c:	fe00 00ee      	cp1ldb %d0,%d0,#1,#238
  ef6ba0:	0000 8000      	orib #0,%d0
  ef6ba4:	8000           	orb %d0,%d0
  ef6ba6:	0000 0000      	orib #0,%d0
  ef6baa:	0000 0001      	orib #1,%d0
  ef6bae:	fe00 0000      	cp1nop #1
  ef6bb2:	0060 0000      	oriw #0,%a0@-
  ef6bb6:	0000 8000      	orib #0,%d0
  ef6bba:	0000 00eb      	orib #-21,%d0
  ef6bbe:	0000 0001      	orib #1,%d0
  ef6bc2:	e0c0           	0160300
  ef6bc4:	0000 00ec      	orib #-20,%d0
  ef6bc8:	0000 0001      	orib #1,%d0
  ef6bcc:	ec00           	asrb #6,%d0
  ef6bce:	fe00 00ee      	cp1ldb %d0,%d0,#1,#238
  ef6bd2:	0000 0000      	orib #0,%d0
  ef6bd6:	ec40           	asrw #6,%d0
  ef6bd8:	0005 00ee      	orib #-18,%d5
  ef6bdc:	0800 0000      	btst #0,%d0
  ef6be0:	ec40           	asrw #6,%d0
  ef6be2:	0006 00ee      	orib #-18,%d6
  ef6be6:	1000           	moveb %d0,%d0
  ef6be8:	0000 ec40      	orib #64,%d0
  ef6bec:	0007 00ee      	orib #-18,%d7
  ef6bf0:	1800           	moveb %d0,%d4
  ef6bf2:	0000 ec40      	orib #64,%d0
  ef6bf6:	0002 00ee      	orib #-18,%d2
  ef6bfa:	2000           	movel %d0,%d0
  ef6bfc:	0000 ec40      	orib #64,%d0
  ef6c00:	0003 00ee      	orib #-18,%d3
  ef6c04:	2800           	movel %d0,%d4
  ef6c06:	0000 ec80      	orib #-128,%d0
  ef6c0a:	0100           	btst %d0,%d0
  ef6c0c:	00ee 3000 0000 	cmp2b %fp@(0),%d3
  ef6c12:	8000           	orb %d0,%d0
  ef6c14:	0000 00ee      	orib #-18,%d0
  ef6c18:	3800           	movew %d0,%d4
  ef6c1a:	0000 ec00      	orib #0,%d0
  ef6c1e:	ff03 00ee      	cp1stb %d0,%d3,#1,#238
  ef6c22:	4000           	negxb %d0
  ef6c24:	0000 8000      	orib #0,%d0
  ef6c28:	0000 00ee      	orib #-18,%d0
  ef6c2c:	c000           	andb %d0,%d0
  ef6c2e:	0000 ec00      	orib #0,%d0
  ef6c32:	ff00 00ee      	cp1stb %d0,%d0,#1,#238
  ef6c36:	c800           	andb %d0,%d4
  ef6c38:	0000 ec40      	orib #64,%d0
  ef6c3c:	0004 00ee      	orib #-18,%d4
  ef6c40:	d000           	addb %d0,%d0
  ef6c42:	0000 8000      	orib #0,%d0
  ef6c46:	0000 00ef      	orib #-17,%d0
  ef6c4a:	0000 0000      	orib #0,%d0
  ef6c4e:	fe40 0000      	cp1nop #1
  ef6c52:	00f0 0000 0001 	cmp2b %a0@(00000001,%d0:w),%d0
  ef6c58:	fe80 0000      	cp1nop #1
  ef6c5c:	0100           	btst %d0,%d0
  ef6c5e:	0000 8000      	orib #0,%d0
  ef6c62:	8000           	orb %d0,%d0
	...
  ef6c70:	0c00 5573      	cmpib #115,%d0
  ef6c74:	696e           	bvss 0xef6ce4
  ef6c76:	6720           	beqs 0xef6c98
  ef6c78:	5253           	addqw #1,%a3@
  ef6c7a:	3233 3220      	movew %a3@(00000020,%d3:w:2),%d1
  ef6c7e:	4120           	chkl %a0@-,%d0
  ef6c80:	696e           	bvss 0xef6cf0
  ef6c82:	7075           	moveq #117,%d0
  ef6c84:	742e           	moveq #46,%d2
  ef6c86:	0a00 0008      	eorib #8,%d0
  ef6c8a:	00ef           	0357
  ef6c8c:	6e48           	bgts 0xef6cd6
  ef6c8e:	0009           	011
  ef6c90:	00ef           	0357
  ef6c92:	6e5c           	bgts 0xef6cf0
  ef6c94:	000a           	012
  ef6c96:	00ef           	0357
  ef6c98:	6e6a           	bgts 0xef6d04
  ef6c9a:	000b           	013
  ef6c9c:	00ef           	0357
  ef6c9e:	6e75           	bgts 0xef6d15
  ef6ca0:	0019 00ef      	orib #-17,%a1@+
  ef6ca4:	6e7e           	bgts 0xef6d24
  ef6ca6:	001a 00ef      	orib #-17,%a2@+
  ef6caa:	6e8f           	bgts 0xef6c3b
  ef6cac:	001b 00ef      	orib #-17,%a3@+
  ef6cb0:	6ea7           	bgts 0xef6c59
  ef6cb2:	000c           	014
  ef6cb4:	00ef           	0357
  ef6cb6:	6eba           	bgts 0xef6c72
	...
  ef6cc0:	5365           	subqw #1,%a5@-
  ef6cc2:	6c66           	bges 0xef6d2a
  ef6cc4:	2054           	moveal %a4@,%a0
  ef6cc6:	6573           	bcss 0xef6d3b
  ef6cc8:	7420           	moveq #32,%d2
  ef6cca:	636f           	blss 0xef6d3b
  ef6ccc:	6d70           	blts 0xef6d3e
  ef6cce:	6c65           	bges 0xef6d35
  ef6cd0:	7465           	moveq #101,%d2
  ef6cd2:	6420           	bccs 0xef6cf4
  ef6cd4:	7375 6363 6573 	mvsw %a5@(00006573)@(7366756c),%d1
  ef6cda:	7366 756c 
  ef6cde:	6c79           	bges 0xef6d59
  ef6ce0:	2e0a           	movel %a2,%d7
  ef6ce2:	0a00 5365      	eorib #101,%d0
  ef6ce6:	6c66           	bges 0xef6d4e
  ef6ce8:	2054           	moveal %a4@,%a0
  ef6cea:	6573           	bcss 0xef6d5f
  ef6cec:	7420           	moveq #32,%d2
  ef6cee:	666f           	bnes 0xef6d5f
  ef6cf0:	756e 6420      	mvsw %fp@(25632),%d2
  ef6cf4:	6120           	bsrs 0xef6d16
  ef6cf6:	7072           	moveq #114,%d0
  ef6cf8:	6f62           	bles 0xef6d5c
  ef6cfa:	6c65           	bges 0xef6d61
  ef6cfc:	6d00 2e0a      	bltw 0xef9b08
  ef6d00:	0020 696e      	orib #110,%a0@-
  ef6d04:	2025           	movel %a5@-,%d0
  ef6d06:	730a           	mvsb %a2,%d1
  ef6d08:	0a00 5772      	eorib #114,%d0
  ef6d0c:	6f74           	bles 0xef6d82
  ef6d0e:	6520           	bcss 0xef6d30
  ef6d10:	2578 2061 7420 	movel 0x2061,%a2@(29728)
  ef6d16:	6164           	bsrs 0xef6d7c
  ef6d18:	6472           	bccs 0xef6d8c
  ef6d1a:	6573           	bcss 0xef6d8f
  ef6d1c:	7320           	mvsb %a0@-,%d1
  ef6d1e:	2578 2c20 6275 	movel 0x2c20,%a2@(25205)
  ef6d24:	7420           	moveq #32,%d2
  ef6d26:	7265           	moveq #101,%d1
  ef6d28:	6164           	bsrs 0xef6d8e
  ef6d2a:	2025           	movel %a5@-,%d0
  ef6d2c:	782e           	moveq #46,%d4
  ef6d2e:	0a00 0a25      	eorib #37,%d0
  ef6d32:	6420           	bccs 0xef6d54
  ef6d34:	746f           	moveq #111,%d2
  ef6d36:	7461           	moveq #97,%d2
  ef6d38:	6c20           	bges 0xef6d5a
  ef6d3a:	6572           	bcss 0xef6dae
  ef6d3c:	726f           	moveq #111,%d1
  ef6d3e:	7200           	moveq #0,%d1
  ef6d40:	2028 2564      	movel %a0@(9572),%d0
  ef6d44:	2074 7261      	moveal %a4@(00000061,%d7:w:2),%a0
  ef6d48:	6e73           	bgts 0xef6dbd
  ef6d4a:	6965           	bvss 0xef6db1
  ef6d4c:	6e74           	bgts 0xef6dc2
  ef6d4e:	2900           	movel %d0,%a4@-
  ef6d50:	2e0a           	movel %a2,%d7
  ef6d52:	4461           	negw %a1@-
  ef6d54:	6d61           	blts 0xef6db7
  ef6d56:	6765           	beqs 0xef6dbd
  ef6d58:	2066           	moveal %fp@-,%a0
  ef6d5a:	6f75           	bles 0xef6dd1
  ef6d5c:	6e64           	bgts 0xef6dc2
  ef6d5e:	000a           	012
  ef6d60:	0a2d 2d3e 2047 	eorib #62,%a5@(8263)
  ef6d66:	6976           	bvss 0xef6dde
  ef6d68:	6520           	bcss 0xef6d8a
  ef6d6a:	7468           	moveq #104,%d2
  ef6d6c:	6520           	bcss 0xef6d8e
  ef6d6e:	6162           	bsrs 0xef6dd2
  ef6d70:	6f76           	bles 0xef6de8
  ef6d72:	6520           	bcss 0xef6d94
  ef6d74:	696e           	bvss 0xef6de4
  ef6d76:	666f           	bnes 0xef6de7
  ef6d78:	726d           	moveq #109,%d1
  ef6d7a:	6174           	bsrs 0xef6df0
  ef6d7c:	696f           	bvss 0xef6ded
  ef6d7e:	6e20           	bgts 0xef6da0
  ef6d80:	746f           	moveq #111,%d2
  ef6d82:	2079 6f75 7220 	moveal 0x6f757220,%a0
  ef6d88:	7365           	mvsw %a5@-,%d1
  ef6d8a:	7276           	moveq #118,%d1
  ef6d8c:	6963           	bvss 0xef6df1
  ef6d8e:	652d           	bcss 0xef6dbd
  ef6d90:	7065           	moveq #101,%d0
  ef6d92:	7273           	moveq #115,%d1
  ef6d94:	6f6e           	bles 0xef6e04
  ef6d96:	2e0a           	movel %a2,%d7
  ef6d98:	0a00 4944      	eorib #68,%d0
  ef6d9c:	2050           	moveal %a0@,%a0
  ef6d9e:	524f           	addqw #1,%sp
  ef6da0:	4d20           	chkl %a0@-,%d6
  ef6da2:	494e           	044516
  ef6da4:	5641           	addqw #3,%d1
  ef6da6:	4c49           	046111
  ef6da8:	440a           	042012
  ef6daa:	0a00 0900      	eorib #0,%d0
  ef6dae:	5375 6e20      	subqw #1,%a5@(00000020,%d6:l:8)			Sun 
  ef6db2:	576f 726b      	subqw #3,%sp@(29291)				Wo
  ef6db6:	7374 6174 696f 	mvsw %a4@(696f6e2c)@(00000000),%d1
  ef6dbc:	6e2c 
  ef6dbe:	204d           	moveal %a5,%a0
  ef6dc0:	6f64           	bles 0xef6e26
  ef6dc2:	656c           	bcss 0xef6e30
  ef6dc4:	2053           	moveal %a3@,%a0
  ef6dc6:	756e 2d32      	mvsw %fp@(11570),%d2
  ef6dca:	2f31 3230      	movel %a1@(00000030,%d3:w:2),%sp@-
  ef6dce:	206f 7220      	moveal %sp@(29216),%a0
  ef6dd2:	5375 6e2d      	subqw #1,%a5@(0000002d,%d6:l:8)
  ef6dd6:	322f 3137      	movew %sp@(12599),%d1
  ef6dda:	302c 2053      	movew %a4@(8275),%d0
  ef6dde:	756e 2d32      	mvsw %fp@(11570),%d2
  ef6de2:	206b 6579      	moveal %a3@(25977),%a0
  ef6de6:	626f           	bhis 0xef6e57
  ef6de8:	6172           	bsrs 0xef6e5c
  ef6dea:	640a           	bccs 0xef6df6
  ef6dec:	0009           	011
  ef6dee:	0052 4f4d      	oriw #20301,%a2@
  ef6df2:	2025           	movel %a5@-,%d0
  ef6df4:	732c 2000      	mvsb %a4@(8192),%d1
  ef6df8:	2564 4d00      	movel %a4@-,%a2@(19712)
  ef6dfc:	2564 4b00      	movel %a4@-,%a2@(19200)
  ef6e00:	4220           	clrb %a0@-
  ef6e02:	6d65           	blts 0xef6e69
  ef6e04:	6d6f           	blts 0xef6e75
  ef6e06:	7279           	moveq #121,%d1
  ef6e08:	2069 6e73      	moveal %a1@(28275),%a0
  ef6e0c:	7461           	moveq #97,%d2
  ef6e0e:	6c6c           	bges 0xef6e7c
  ef6e10:	6564           	bcss 0xef6e76
  ef6e12:	0a00 0900      	eorib #0,%d0
  ef6e16:	5365           	subqw #1,%a5@-
  ef6e18:	7269           	moveq #105,%d1
  ef6e1a:	616c           	bsrs 0xef6e88
  ef6e1c:	2023           	movel %a3@-,%d0
  ef6e1e:	2564 2c20      	movel %a4@-,%a2@(11296)
  ef6e22:	4574           	042564
  ef6e24:	6865           	bvcs 0xef6e8b
  ef6e26:	726e           	moveq #110,%d1
  ef6e28:	6574           	bcss 0xef6e9e
  ef6e2a:	2061           	moveal %a1@-,%a0
  ef6e2c:	6464           	bccs 0xef6e92
  ef6e2e:	7265           	moveq #101,%d1
  ef6e30:	7373 2025      	mvsw %a3@(00000025,%d2:w),%d1
  ef6e34:	783a           	moveq #58,%d4
  ef6e36:	2578 3a25 783a 	movel 0x3a25,%a2@(30778)
  ef6e3c:	2578 3a25 783a 	movel 0x3a25,%a2@(30778)
  ef6e42:	2578 0a00 0a00 	movel 0xa00,%a2@(2560)
  ef6e48:	2c20           	movel %a0@-,%d6
  ef6e4a:	636f           	blss 0xef6ebb
  ef6e4c:	6e74           	bgts 0xef6ec2
  ef6e4e:	6578           	bcss 0xef6ec8
  ef6e50:	7420           	moveq #32,%d2
  ef6e52:	7265           	moveq #101,%d1
  ef6e54:	6769           	beqs 0xef6ebf
  ef6e56:	7374 6572 7300 	mvsw %a4@(73002c20)@(00007365),%d1
  ef6e5c:	2c20 7365 
  ef6e60:	676d           	beqs 0xef6ecf
  ef6e62:	656e           	bcss 0xef6ed2
  ef6e64:	7420           	moveq #32,%d2
  ef6e66:	6d61           	blts 0xef6ec9
  ef6e68:	7000           	moveq #0,%d0
  ef6e6a:	2c20           	movel %a0@-,%d6
  ef6e6c:	7061           	moveq #97,%d0
  ef6e6e:	6765           	beqs 0xef6ed5
  ef6e70:	206d 6170      	moveal %a5@(24944),%a0
  ef6e74:	002c 206d 656d 	orib #109,%a4@(25965)
  ef6e7a:	6f72           	bles 0xef6eee
  ef6e7c:	7900           	mvsb %d0,%d4
  ef6e7e:	2028 636f      	movel %a0@(25455),%d0
  ef6e82:	6e73           	bgts 0xef6ef7
  ef6e84:	7461           	moveq #97,%d2
  ef6e86:	6e74           	bgts 0xef6efc
  ef6e88:	2064           	moveal %a4@-,%a0
  ef6e8a:	6174           	bsrs 0xef6f00
  ef6e8c:	6129           	bsrs 0xef6eb7
  ef6e8e:	0020 2861      	orib #97,%a0@-
  ef6e92:	6464           	bccs 0xef6ef8
  ef6e94:	7265           	moveq #101,%d1
  ef6e96:	7373 2069      	mvsw %a3@(00000069,%d2:w),%d1
  ef6e9a:	6e64           	bgts 0xef6f00
  ef6e9c:	6570           	bcss 0xef6f0e
  ef6e9e:	656e           	bcss 0xef6f0e
  ef6ea0:	6465           	bccs 0xef6f07
  ef6ea2:	6e63           	bgts 0xef6f07
  ef6ea4:	6529           	bcss 0xef6ecf
  ef6ea6:	0020 2874      	orib #116,%a0@-
  ef6eaa:	7261           	moveq #97,%d1
  ef6eac:	6e73           	bgts 0xef6f21
  ef6eae:	6965           	bvss 0xef6f15
  ef6eb0:	6e74           	bgts 0xef6f26
  ef6eb2:	2065           	moveal %a5@-,%a0
  ef6eb4:	7272           	moveq #114,%d1
  ef6eb6:	6f72           	bles 0xef6f2a
  ef6eb8:	2900           	movel %d0,%a4@-
  ef6eba:	2c20           	movel %a0@-,%d6
  ef6ebc:	4445           	negw %d5
  ef6ebe:	5320           	subqb #1,%a0@-
  ef6ec0:	6368           	blss 0xef6f2a
  ef6ec2:	6970           	bvss 0xef6f34
  ef6ec4:	0000 0000      	orib #0,%d0
  ef6ec8:	000c           	014
  ef6eca:	0000 0000      	orib #0,%d0
  ef6ece:	8000           	orb %d0,%d0
  ef6ed0:	0000 0010      	orib #16,%d0
  ef6ed4:	0000 0001      	orib #1,%d0
  ef6ed8:	fe00 0180      	cp1ldb %d0,%d0,#1,#384
  ef6edc:	0014 0000      	orib #0,%a4@
  ef6ee0:	0001 fe80      	orib #-128,%d1
  ef6ee4:	0080 001f 0000 	oril #2031616,%d0
  ef6eea:	0001 fec0      	orib #-64,%d1
  ef6eee:	0000 0020      	orib #32,%d0
  ef6ef2:	0000 0000      	orib #0,%d0
  ef6ef6:	fe40 0000      	cp1nop #1
  ef6efa:	0020 0800      	orib #0,%a0@-
  ef6efe:	8000           	orb %d0,%d0
  ef6f00:	8000           	orb %d0,%d0
  ef6f02:	0000 00f0      	orib #-16,%d0
  ef6f06:	0000 0001      	orib #1,%d0
  ef6f0a:	fe00 0180      	cp1ldb %d0,%d0,#1,#384
  ef6f0e:	00f4 0000 8000 	cmp2b %a4@(00000000,%a0:w),%d0
  ef6f14:	8000           	orb %d0,%d0
  ef6f16:	0000 4430      	orib #48,%d0
  ef6f1a:	0044 3100      	oriw #12544,%d4
  ef6f1e:	4432 0044      	negb %a2@(00000044,%d0:w)
  ef6f22:	3300           	movew %d0,%a1@-
  ef6f24:	4434 0044      	negb %a4@(00000044,%d0:w)
  ef6f28:	3500           	movew %d0,%a2@-
  ef6f2a:	4436 0044      	negb %fp@(00000044,%d0:w)
  ef6f2e:	3700           	movew %d0,%a3@-
  ef6f30:	4130 0041      	chkl %a0@(00000041,%d0:w),%d0
  ef6f34:	3100           	movew %d0,%a0@-
  ef6f36:	4132 0041      	chkl %a2@(00000041,%d0:w),%d0
  ef6f3a:	3300           	movew %d0,%a1@-
  ef6f3c:	4134 0041      	chkl %a4@(00000041,%d0:w),%d0
  ef6f40:	3500           	movew %d0,%a2@-
  ef6f42:	4136 0053      	chkl %fp@(00000053,%d0:w),%d0
  ef6f46:	5300           	subqb #1,%d0
  ef6f48:	5553           	subqw #2,%a3@
  ef6f4a:	0053 4600      	oriw #17920,%a3@
  ef6f4e:	4446           	negw %d6
  ef6f50:	0056 4200      	oriw #16896,%fp@
  ef6f54:	5343           	subqw #1,%d3
  ef6f56:	0055 4300      	oriw #17152,%a5@
  ef6f5a:	5352           	subqw #1,%a2@
  ef6f5c:	0050 4300      	oriw #17152,%a0@
  ef6f60:	4c6f           	046157
  ef6f62:	7665           	moveq #101,%d3
  ef6f64:	2079 6f75 7220 	moveal 0x6f757220,%a0
  ef6f6a:	636f           	blss 0xef6fdb
  ef6f6c:	756e 7472      	mvsw %fp@(29810),%d2
  ef6f70:	792c 2062      	mvsb %a4@(8290),%d4
  ef6f74:	7574 206e      	mvsw %a4@(0000006e,%d2:w),%d2
  ef6f78:	6576           	bcss 0xef6ff0
  ef6f7a:	6572           	bcss 0xef6fee
  ef6f7c:	2074 7275      	moveal %a4@(00000075,%d7:w:2),%a0
  ef6f80:	7374 2069      	mvsw %a4@(00000069,%d2:w),%d1
  ef6f84:	7473           	moveq #115,%d2
  ef6f86:	2067           	moveal %sp@-,%a0
  ef6f88:	6f76           	bles 0xef7000
  ef6f8a:	6572           	bcss 0xef6ffe
  ef6f8c:	6e6d           	bgts 0xef6ffb
  ef6f8e:	656e           	bcss 0xef6ffe
  ef6f90:	742e           	moveq #46,%d2
  ef6f92:	0a00 3a20      	eorib #32,%d0
  ef6f96:	003f           	077
  ef6f98:	2000           	movel %d0,%d0
  ef6f9a:	202d 3e20      	movel %a5@(15904),%d0
  ef6f9e:	000a           	012
  ef6fa0:	5761           	subqw #3,%a1@-
  ef6fa2:	7463           	moveq #99,%d2
  ef6fa4:	6864           	bvcs 0xef700a
  ef6fa6:	6f67           	bles 0xef700f
  ef6fa8:	2072 6573 6574 	moveal %a2@(6574210a)@(00417574),%a0
  ef6fae:	210a 0041 7574 
  ef6fb4:	6f2d           	bles 0xef6fe3
  ef6fb6:	626f           	bhis 0xef7027
  ef6fb8:	6f74           	bles 0xef702e
  ef6fba:	2069 6e20      	moveal %a1@(28192),%a0
  ef6fbe:	7072           	moveq #114,%d0
  ef6fc0:	6f67           	bles 0xef7029
  ef6fc2:	7265           	moveq #101,%d1
  ef6fc4:	7373 2e2e      	mvsw %a3@(0000002e,%d2:l:8),%d1
  ef6fc8:	2e0a           	movel %a2,%d7
  ef6fca:	000a           	012
  ef6fcc:	4162           	040542
  ef6fce:	6f72           	bles 0xef7042
  ef6fd0:	7400           	moveq #0,%d2
  ef6fd2:	496e           	044556
  ef6fd4:	7661           	moveq #97,%d3
  ef6fd6:	6c69           	bges 0xef7041
  ef6fd8:	6420           	bccs 0xef6ffa
  ef6fda:	5061           	addqw #8,%a1@-
  ef6fdc:	6765           	beqs 0xef7043
  ef6fde:	2000           	movel %d0,%d0
  ef6fe0:	5072 6f74 6563 	addqw #8,%a2@(65637469)@(00000000)
  ef6fe6:	7469 
  ef6fe8:	6f6e           	bles 0xef7058
  ef6fea:	2000           	movel %d0,%d0
  ef6fec:	492f 4f20      	chkl %sp@(20256),%d4
  ef6ff0:	0054 696d      	oriw #26989,%a4@
  ef6ff4:	656f           	bcss 0xef7065
  ef6ff6:	7574 2000      	mvsw %a4@(00000000,%d2:w),%d2
  ef6ffa:	5570 7065      	subqw #2,%a0@(00000065,%d7:w)
  ef6ffe:	7220           	moveq #32,%d1
  ef7000:	4279 7465 2000 	clrw 0x74652000
  ef7006:	5061           	addqw #8,%a1@-
  ef7008:	7269           	moveq #105,%d1
  ef700a:	7479           	moveq #121,%d2
  ef700c:	2000           	movel %d0,%d0
  ef700e:	4c6f           	046157
  ef7010:	7765           	mvsw %a5@-,%d3
  ef7012:	7220           	moveq #32,%d1
  ef7014:	4279 7465 2000 	clrw 0x74652000
  ef701a:	4275 7320 0041 	clrw %a5@(00000041,%d7:w:2)
  ef7020:	6464           	bccs 0xef7086
  ef7022:	7265           	moveq #101,%d1
  ef7024:	7373 2000      	mvsw %a3@(00000000,%d2:w),%d1
  ef7028:	4572           	042562
  ef702a:	726f           	moveq #111,%d1
  ef702c:	722c           	moveq #44,%d1
  ef702e:	2061           	moveal %a1@-,%a0
  ef7030:	6464           	bccs 0xef7096
  ef7032:	723a           	moveq #58,%d1
  ef7034:	2000           	movel %d0,%d0
  ef7036:	2061           	moveal %a1@-,%a0
  ef7038:	7420           	moveq #32,%d2
  ef703a:	000a           	012
  ef703c:	4578           	042570
  ef703e:	6365           	blss 0xef70a5
  ef7040:	7074           	moveq #116,%d0
  ef7042:	696f           	bvss 0xef70b3
  ef7044:	6e20           	bgts 0xef7066
  ef7046:	2578 0053 6567 	movel 0x53,%a2@(25959)
  ef704c:	4d61           	046541
  ef704e:	7020           	moveq #32,%d0
  ef7050:	0050 6167      	oriw #24935,%a0@
  ef7054:	654d           	bcss 0xef70a3
  ef7056:	6170           	bsrs 0xef70c8
  ef7058:	2000           	movel %d0,%d0
  ef705a:	205b           	moveal %a3@+,%a0
  ef705c:	0046 4325      	oriw #17189,%d6
  ef7060:	7820           	moveq #32,%d4
  ef7062:	7370 6163 650a 	mvsw %a0@(0000650a)@(00576861),%d1
  ef7068:	0057 6861 
  ef706c:	743f           	moveq #63,%d2
  ef706e:	0a00 6b61      	eorib #97,%d0
  ef7072:	6200 7361      	bhiw 0xefe3d5
  ef7076:	6200 0007      	bhiw 0xef707f
  ef707a:	6800 0000      	bvcw 0xef707c
  ef707e:	0000 0003      	orib #3,%d0
  ef7082:	8400           	orb %d0,%d2
  ef7084:	0000 0002      	orib #2,%d0
  ef7088:	0001 9200      	orib #0,%d1
  ef708c:	0000 0006      	orib #6,%d0
  ef7090:	0000 9600      	orib #0,%d0
  ef7094:	0000 000e      	orib #14,%d0
  ef7098:	0000 4800      	orib #0,%d0
  ef709c:	0000 001e      	orib #30,%d0
  ef70a0:	0000 2400      	orib #0,%d0
  ef70a4:	0000 003e      	orib #62,%d0
  ef70a8:	0000 1200      	orib #0,%d0
  ef70ac:	0000 007e      	orib #126,%d0
  ef70b0:	0000 0600      	orib #0,%d0
  ef70b4:	0000 00fe      	orib #-2,%d0
  ef70b8:	0000 0300      	orib #0,%d0
  ef70bc:	0000 01fe      	orib #-2,%d0
  ef70c0:	0000 0150      	orib #80,%d0
  ef70c4:	0000 03fe      	orib #-2,%d0
  ef70c8:	0000 0110      	orib #16,%d0
  ef70cc:	0000 0572      	orib #114,%d0
	...
  ef70d8:	0000 09c0      	orib #-64,%d0
  ef70dc:	0000 0446      	orib #70,%d0
  ef70e0:	03c0           	bset %d1,%d0
  ef70e2:	05e2           	bset %d2,%a2@-
  ef70e4:	0902           	btst %d4,%d2
  ef70e6:	0b51           	bchg %d5,%a1@
  ef70e8:	0c0e 0d00      	cmpib #0,%d6
  ef70ec:	0e02           	07002
  ef70ee:	03c1           	bset %d1,%d1
  ef70f0:	05ea 0e03      	bset %d2,%a2@(3587)
  ef70f4:	0010 0010      	orib #16,%a0@
  ef70f8:	7525           	mvsb %a5@-,%d2
  ef70fa:	6369           	blss 0xef7165
  ef70fc:	2c20           	movel %a0@-,%d6
  ef70fe:	7525           	mvsb %a5@-,%d2
  ef7100:	636f           	blss 0xef7171
  ef7102:	2c20           	movel %a0@-,%d6
  ef7104:	7561           	mvsw %a1@-,%d2
  ef7106:	2578 2c20 7562 	movel 0x2c20,%a2@(30050)
  ef710c:	2578 2c20 7575 	movel 0x2c20,%a2@(30069)
  ef7112:	2578 2c20 7500 	movel 0x2c20,%a2@(29952)
  ef7118:	650a           	bcss 0xef7124
  ef711a:	0049           	0111
  ef711c:	6e76           	bgts 0xef7194
  ef711e:	616c           	bsrs 0xef718c
  ef7120:	6964           	bvss 0xef7186
  ef7122:	2073 656c 6563 	moveal %a3@(00006563)@(00000000),%a0
  ef7128:	7469           	moveq #105,%d2
  ef712a:	6f6e           	bles 0xef719a
  ef712c:	0a00 4578      	eorib #120,%d0
  ef7130:	7472           	moveq #114,%d2
  ef7132:	6120           	bsrs 0xef7154
  ef7134:	6368           	blss 0xef719e
  ef7136:	6172           	bsrs 0xef71aa
  ef7138:	7320           	mvsb %a0@-,%d1
  ef713a:	696e           	bvss 0xef71aa
  ef713c:	2063           	moveal %a3@-,%a0
  ef713e:	6f6d           	bles 0xef71ad
  ef7140:	6d61           	blts 0xef71a3
  ef7142:	6e64           	bgts 0xef71a8
  ef7144:	0a00 0000      	eorib #0,%d0
  ef7148:	0820 0800      	btst #0,%a0@-
  ef714c:	3031 3233      	movew %a1@(00000033,%d3:w:2),%d0
  ef7150:	3435 3637      	movew %a5@(00000037,%d3:w:8),%d2
  ef7154:	3839 4142 4344 	movew 0x41424344,%d4
  ef715a:	4546           	042506
  ef715c:	0000 0000      	orib #0,%d0
  ef7160:	3031 3233      	movew %a1@(00000033,%d3:w:2),%d0
  ef7164:	3435 3637      	movew %a5@(00000037,%d3:w:8),%d2
  ef7168:	3839 4142 4344 	movew 0x41424344,%d4
  ef716e:	4546           	042506
  ef7170:	0000 0000      	orib #0,%d0
  ef7174:	4b65           	045545
  ef7176:	7962           	mvsw %a2@-,%d4
  ef7178:	6f61           	bles 0xef71db
  ef717a:	7264           	moveq #100,%d1
  ef717c:	2065           	moveal %a5@-,%a0
  ef717e:	7272           	moveq #114,%d1
  ef7180:	6f72           	bles 0xef71f4
  ef7182:	2064           	moveal %a4@-,%a0
  ef7184:	6574           	bcss 0xef71fa
  ef7186:	6563           	bcss 0xef71eb
  ef7188:	7465           	moveq #101,%d2
  ef718a:	640a           	bccs 0xef7196
  ef718c:	0000 0000      	orib #0,%d0
  ef7190:	a291 a1a1      	msacw %d1l,%a2u,%a1@&,%d1
  ef7194:	a2a1 a1a1      	msacw %d1l,%a2u,%a1@-&,%d1
  ef7198:	a1a1           	0120641
  ef719a:	a1a1           	0120641
  ef719c:	a1a1           	0120641
  ef719e:	a1a1           	0120641
  ef71a0:	a1a1           	0120641
  ef71a2:	a1a1           	0120641
  ef71a4:	a2a1 a1a1      	msacw %d1l,%a2u,%a1@-&,%d1
  ef71a8:	a2a1 a1a1      	msacw %d1l,%a2u,%a1@-&,%d1
  ef71ac:	a21b           	0121033
  ef71ae:	3132 3334 3536 	movew %a2@(35363738)@(00000000,%d3:w:2),%a0@-
  ef71b4:	3738 
  ef71b6:	3930 2d3d 6008 	movew %a0@(6008a2a1)@(00000000,%d2:l:4),%a4@-
  ef71bc:	a2a1 
  ef71be:	a1a1           	0120641
  ef71c0:	a2a1 a1a1      	msacw %d1l,%a2u,%a1@-&,%d1
  ef71c4:	a209 7177      	msacw %a1u,%d1l
  ef71c8:	6572           	bcss 0xef723c
  ef71ca:	7479           	moveq #121,%d2
  ef71cc:	7569 6f70      	mvsw %a1@(28528),%d2
  ef71d0:	5b5d           	subqw #5,%a5@+
  ef71d2:	7fa2           	mvzb %a2@-,%d7
  ef71d4:	a1b1           	0120661
  ef71d6:	a1a2           	0120642
  ef71d8:	a1a1           	0120641
  ef71da:	a1a2           	0120642
  ef71dc:	8461           	orw %a1@-,%d2
  ef71de:	7364           	mvsw %a4@-,%d1
  ef71e0:	6667           	bnes 0xef7249
  ef71e2:	686a           	bvcs 0xef724e
  ef71e4:	6b6c           	bmis 0xef7252
  ef71e6:	3b27           	movew %sp@-,%a5@-
  ef71e8:	5c0d           	056015
  ef71ea:	a2b3           	0121263
  ef71ec:	a1b4           	0120664
  ef71ee:	a2a1 a1a1      	msacw %d1l,%a2u,%a1@-&,%d1
  ef71f2:	a282           	0121202
  ef71f4:	7a78           	moveq #120,%d5
  ef71f6:	6376           	blss 0xef726e
  ef71f8:	626e           	bhis 0xef7268
  ef71fa:	6d2c           	blts 0xef7228
  ef71fc:	2e2f 830a      	movel %sp@(-31990),%d7
  ef7200:	a1b2           	0120662
  ef7202:	a1a2           	0120642
  ef7204:	a2a2 a2a2      	macw %d2l,%a2u,<<,%a2@-&,%d1
  ef7208:	9020           	subb %a0@-,%d0
  ef720a:	90a2           	subl %a2@-,%d0
  ef720c:	a2a2 a7a8      	msacw %a0l,%a2u,>>,%a2@-&,%d1
  ef7210:	a291 a1a1      	msacw %d1l,%a2u,%a1@&,%d1
  ef7214:	a2a1 a1a1      	msacw %d1l,%a2u,%a1@-&,%d1
  ef7218:	a1a1           	0120641
  ef721a:	a1a1           	0120641
  ef721c:	a1a1           	0120641
  ef721e:	a1a1           	0120641
  ef7220:	a1a1           	0120641
  ef7222:	a1a1           	0120641
  ef7224:	a2a1 a1a1      	msacw %d1l,%a2u,%a1@-&,%d1
  ef7228:	a2a1 a1a1      	msacw %d1l,%a2u,%a1@-&,%d1
  ef722c:	a21b           	0121033
  ef722e:	2140 2324      	movel %d0,%a0@(8996)
  ef7232:	255e 262a      	movel %fp@+,%a2@(9770)
  ef7236:	2829 5f2b      	movel %a1@(24363),%d4
  ef723a:	7e08           	moveq #8,%d7
  ef723c:	a2a1 a1a1      	msacw %d1l,%a2u,%a1@-&,%d1
  ef7240:	a2a1 a1a1      	msacw %d1l,%a2u,%a1@-&,%d1
  ef7244:	a209 5157      	msacw %a1u,%d1l
  ef7248:	4552           	042522
  ef724a:	5459           	addqw #2,%a1@+
  ef724c:	5549           	subqw #2,%a1
  ef724e:	4f50           	047520
  ef7250:	7b7d           	075575
  ef7252:	7fa2           	mvzb %a2@-,%d7
  ef7254:	a1b1           	0120661
  ef7256:	a1a2           	0120642
  ef7258:	a1a1           	0120641
  ef725a:	a1a2           	0120642
  ef725c:	8441           	orw %d1,%d2
  ef725e:	5344           	subqw #1,%d4
  ef7260:	4647           	notw %d7
  ef7262:	484a           	bkpt 2
  ef7264:	4b4c           	045514
  ef7266:	3a22           	movew %a2@-,%d5
  ef7268:	7c0d           	moveq #13,%d6
  ef726a:	a2b3           	0121263
  ef726c:	a1b4           	0120664
  ef726e:	a2a1 a1a1      	msacw %d1l,%a2u,%a1@-&,%d1
  ef7272:	a282           	0121202
  ef7274:	5a58           	addqw #5,%a0@+
  ef7276:	4356           	041526
  ef7278:	424e           	041116
  ef727a:	4d3c 3e3f 830a 	chkl #1044349706,%d6
  ef7280:	a1b2           	0120662
  ef7282:	a1a2           	0120642
  ef7284:	a2a2 a2a2      	macw %d2l,%a2u,<<,%a2@-&,%d1
  ef7288:	9020           	subb %a0@-,%d0
  ef728a:	90a2           	subl %a2@-,%d0
  ef728c:	a2a2 a7a8      	msacw %a0l,%a2u,>>,%a2@-&,%d1
  ef7290:	00ef           	0357
  ef7292:	7190           	mvzb %a0@,%d0
  ef7294:	00ef           	0357
  ef7296:	7210           	moveq #16,%d1
	...
  ef72ac:	00ef           	0357
  ef72ae:	7290           	moveq #-112,%d1
  ef72b0:	5072 6f62 696e 	addqw #8,%a2@(0000696e)@(00006720)
  ef72b6:	6720 
  ef72b8:	4d75           	046565
  ef72ba:	6c74           	bges 0xef7330
  ef72bc:	6962           	bvss 0xef7320
  ef72be:	7573 003a      	mvsw %a3@(0000003a,%d0:w),%d2
  ef72c2:	0020 2563      	orib #99,%a0@-
  ef72c6:	2563 000a      	movel %a3@-,%a2@(10)
  ef72ca:	0000 7879      	orib #121,%d0
  ef72ce:	00ef           	0357
  ef72d0:	53c0           	sls %d0
  ef72d2:	00ef           	0357
  ef72d4:	542a 00ef      	addqb #2,%a2@(239)
  ef72d8:	2b7c 00ef 2b7c 	movel #15674236,%a5@(239)
  ef72de:	00ef 
  ef72e0:	2b7c 00ef 745c 	movel #15692892,%a5@(26992)
  ef72e6:	6970 
  ef72e8:	00ef           	0357
  ef72ea:	4724           	chkl %a4@-,%d3
  ef72ec:	00ef           	0357
  ef72ee:	478a           	043612
  ef72f0:	00ef           	0357
  ef72f2:	2b7c 00ef 2b7c 	movel #15674236,%a5@(239)
  ef72f8:	00ef 
  ef72fa:	2b7c 00ef 746e 	movel #15692910,%a5@(29540)
  ef7300:	7364 
  ef7302:	00ef           	0357
  ef7304:	5b84           	subql #5,%d4
  ef7306:	00ef           	0357
  ef7308:	67c4           	beqs 0xef72ce
  ef730a:	00ef           	0357
  ef730c:	5c0c           	056014
  ef730e:	00ef           	0357
  ef7310:	2b7c 00ef 5d32 	movel #15686962,%a5@(239)
  ef7316:	00ef 
  ef7318:	7482           	moveq #-126,%d2
  ef731a:	6965           	bvss 0xef7381
  ef731c:	00ef           	0357
  ef731e:	3fd4           	037724
  ef7320:	00ef           	0357
  ef7322:	67c4           	beqs 0xef72e8
  ef7324:	00ef           	0357
  ef7326:	402e 00ef      	negxb %fp@(239)
  ef732a:	471c           	chkl %a4@+,%d3
  ef732c:	00ef           	0357
  ef732e:	4e88           	047210
  ef7330:	00ef           	0357
  ef7332:	7496           	moveq #-106,%d2
  ef7334:	6563           	bcss 0xef7399
  ef7336:	00ef           	0357
  ef7338:	3d98 00ef      	movew %a0@+,%fp@(ffffffef,%d0:w)
  ef733c:	67c4           	beqs 0xef7302
  ef733e:	00ef           	0357
  ef7340:	3dc0           	036700
  ef7342:	00ef           	0357
  ef7344:	2b7c 00ef 4e88 	movel #15683208,%a5@(239)
  ef734a:	00ef 
  ef734c:	74b1           	moveq #-79,%d2
  ef734e:	6d74           	blts 0xef73c4
  ef7350:	00ef           	0357
  ef7352:	2b7c 00ef 4b34 	movel #15682356,%a5@(239)
  ef7358:	00ef 
  ef735a:	2b7c 00ef 2b7c 	movel #15674236,%a5@(239)
  ef7360:	00ef 
  ef7362:	2b7c 00ef 74c7 	movel #15692999,%a5@(30836)
  ef7368:	7874 
  ef736a:	00ef           	0357
  ef736c:	2b7c 00ef 6718 	movel #15689496,%a5@(239)
  ef7372:	00ef 
  ef7374:	63d0           	blss 0xef7346
  ef7376:	00ef           	0357
  ef7378:	6468           	bccs 0xef73e2
  ef737a:	00ef           	0357
  ef737c:	6490           	bccs 0xef730e
  ef737e:	00ef           	0357
  ef7380:	74d8           	moveq #-40,%d2
  ef7382:	7374 00ef      	mvsw %a4@(ffffffef,%d0:w),%d1
  ef7386:	2b7c 00ef 6718 	movel #15689496,%a5@(239)
  ef738c:	00ef 
  ef738e:	5fe4           	sle %a4@-
  ef7390:	00ef           	0357
  ef7392:	6114           	bsrs 0xef73a8
  ef7394:	00ef           	0357
  ef7396:	615e           	bsrs 0xef73f6
  ef7398:	00ef           	0357
  ef739a:	74ee           	moveq #-18,%d2
  ef739c:	0000 00ef      	orib #-17,%d0
  ef73a0:	2b7c 00ef 2b7c 	movel #15674236,%a5@(239)
  ef73a6:	00ef 
  ef73a8:	2b7c 00ef 2b7c 	movel #15674236,%a5@(239)
  ef73ae:	00ef 
  ef73b0:	2b7c 0000 0000 	movel #0,%a5@(0)
  ef73b6:	0000 
  ef73b8:	4e6f           	movel %usp,%sp
  ef73ba:	2064           	moveal %a4@-,%a0
  ef73bc:	6566           	bcss 0xef7424
  ef73be:	6175           	bsrs 0xef7435
  ef73c0:	6c74           	bges 0xef7436
  ef73c2:	2062           	moveal %a2@-,%a0
  ef73c4:	6f6f           	bles 0xef7435
  ef73c6:	7420           	moveq #32,%d2
  ef73c8:	6465           	bccs 0xef742f
  ef73ca:	7669           	moveq #105,%d3
  ef73cc:	6365           	blss 0xef7433
  ef73ce:	730a           	mvsb %a2,%d1
  ef73d0:	0076 6d75 6e69 	oriw #28021,%fp@(00000069,%d6:l:8)
  ef73d6:	7800           	moveq #0,%d4
  ef73d8:	0042 6f6f      	oriw #28527,%d2
  ef73dc:	743a           	moveq #58,%d2
  ef73de:	2025           	movel %a5@-,%d0
  ef73e0:	6325           	blss 0xef7407
  ef73e2:	6328           	blss 0xef740c
  ef73e4:	2578 2c25 782c 	movel 0x2c25,%a2@(30764)
  ef73ea:	2578 2925 7320 	movel 0x2925,%a2@(29472)
  ef73f0:	2573 0a00 426f 	movel %a3@(00000000,%d0:l:2),%a2@(17007)
  ef73f6:	6f74           	bles 0xef746c
  ef73f8:	2073 796e 7461 	moveal %a3@(00007461)@(0000783a),%a0
  ef73fe:	783a 
  ef7400:	2062           	moveal %a2@-,%a0
  ef7402:	205b           	moveal %a3@+,%a0
  ef7404:	215d 5b64      	movel %a5@+,%a0@(23396)
  ef7408:	6576           	bcss 0xef7480
  ef740a:	2863           	moveal %a3@-,%a4
  ef740c:	746c           	moveq #108,%d2
  ef740e:	722c           	moveq #44,%d1
  ef7410:	756e 6974      	mvsw %fp@(26996),%d2
  ef7414:	2c70 6172 7429 	moveal %a0@(74295d20)@(00006e61),%fp
  ef741a:	5d20 6e61 
  ef741e:	6d65           	blts 0xef7485
  ef7420:	205b           	moveal %a3@+,%a0
  ef7422:	6f70           	bles 0xef7494
  ef7424:	7469           	moveq #105,%d2
  ef7426:	6f6e           	bles 0xef7496
  ef7428:	735d           	mvsw %a5@+,%d1
  ef742a:	0a50 6f73      	eoriw #28531,%a0@
  ef742e:	7369 626c      	mvsw %a1@(25196),%d1
  ef7432:	6520           	bcss 0xef7454
  ef7434:	626f           	bhis 0xef74a5
  ef7436:	6f74           	bles 0xef74ac
  ef7438:	2064           	moveal %a4@-,%a0
  ef743a:	6576           	bcss 0xef74b2
  ef743c:	6963           	bvss 0xef74a1
  ef743e:	6573           	bcss 0xef74b3
  ef7440:	3a0a           	movew %a2,%d5
  ef7442:	0020 2025      	orib #37,%a0@-
  ef7446:	730a           	mvsb %a2,%d1
  ef7448:	0030 3132 3334 	orib #50,%a0@(35363738)@(00000000,%d3:w:2)
  ef744e:	3536 3738 
  ef7452:	3961 6263      	movew %a1@-,%a4@(25187)
  ef7456:	6465           	bccs 0xef74bd
  ef7458:	6600 0000      	bnew 0xef745a
  ef745c:	7879           	moveq #121,%d4
  ef745e:	3a20           	movew %a0@-,%d5
  ef7460:	5879 6c6f 6769 	addqw #4,0x6c6f6769
  ef7466:	6373           	blss 0xef74db
  ef7468:	2064           	moveal %a4@-,%a0
  ef746a:	6973           	bvss 0xef74df
  ef746c:	6b00 6970      	bmiw 0xefddde
  ef7470:	3a20           	movew %a0@-,%d5
  ef7472:	496e           	044556
  ef7474:	7465           	moveq #101,%d2
  ef7476:	7270           	moveq #112,%d1
  ef7478:	6861           	bvcs 0xef74db
  ef747a:	7365           	mvsw %a5@-,%d1
  ef747c:	2064           	moveal %a4@-,%a0
  ef747e:	6973           	bvss 0xef74f3
  ef7480:	6b00 7364      	bmiw 0xefe7e6
  ef7484:	3a20           	movew %a0@-,%d5
  ef7486:	5343           	subqw #1,%d3
  ef7488:	5349           	subqw #1,%a1
  ef748a:	2035 2d31 2f34 	movel %a5@(2f342064,%d2:l:4)@(00000000),%d0
  ef7490:	2064 
  ef7492:	6973           	bvss 0xef7507
  ef7494:	6b00 6965      	bmiw 0xefddfb
  ef7498:	3a20           	movew %a0@-,%d5
  ef749a:	5375 6e2f      	subqw #1,%a5@(0000002f,%d6:l:8)
  ef749e:	496e           	044556
  ef74a0:	7465           	moveq #101,%d2
  ef74a2:	6c20           	bges 0xef74c4
  ef74a4:	6e65           	bgts 0xef750b
  ef74a6:	7477           	moveq #119,%d2
  ef74a8:	6f72           	bles 0xef751c
  ef74aa:	6b20           	bmis 0xef74cc
  ef74ac:	6469           	bccs 0xef7517
  ef74ae:	736b 0065      	mvsw %a3@(101),%d1
  ef74b2:	633a           	blss 0xef74ee
  ef74b4:	2033 436f 6d20 	movel %a3@(00006d20)@(6e657477),%d0
  ef74ba:	6e65 7477 
  ef74be:	6f72           	bles 0xef7532
  ef74c0:	6b20           	bmis 0xef74e2
  ef74c2:	6469           	bccs 0xef752d
  ef74c4:	736b 006d      	mvsw %a3@(109),%d1
  ef74c8:	743a           	moveq #58,%d2
  ef74ca:	2039 2d74 7261 	movel 0x2d747261,%d0
  ef74d0:	636b           	blss 0xef753d
  ef74d2:	2074 6170 6500 	moveal %a4@(65007874),%a0
  ef74d8:	7874 
  ef74da:	3a20           	movew %a0@-,%d5
  ef74dc:	5879 6c6f 6769 	addqw #4,0x6c6f6769
  ef74e2:	6373           	blss 0xef7557
  ef74e4:	2034 3732 2074 	movel %a4@(20746170,%d3:w:8)@(00006500),%d0
  ef74ea:	6170 6500 
  ef74ee:	7374 3a20      	mvsw %a4@(00000020,%d3:l:2),%d1
  ef74f2:	5343           	subqw #1,%d3
  ef74f4:	5349           	subqw #1,%a1
  ef74f6:	2074 6170 6500 	moveal %a4@(65000a07),%a0
  ef74fc:	0a07 
  ef74fe:	5761           	subqw #3,%a1@-
  ef7500:	6974           	bvss 0xef7576
  ef7502:	696e           	bvss 0xef7572
  ef7504:	6720           	beqs 0xef7526
  ef7506:	666f           	bnes 0xef7577
  ef7508:	7220           	moveq #32,%d1
  ef750a:	6469           	bccs 0xef7575
  ef750c:	736b 2074      	mvsw %a3@(8308),%d1
  ef7510:	6f20           	bles 0xef7532
  ef7512:	7370 696e 2075 	mvsw %a0@(00002075)@(0000702e),%d1
  ef7518:	702e 
  ef751a:	2e2e 0a0a      	movel %fp@(2570),%d7
  ef751e:	506c 6561      	addqw #8,%a4@(25953)
  ef7522:	7365           	mvsw %a5@-,%d1
  ef7524:	2073 7461      	moveal %a3@(00000061,%d7:w:4),%a0
  ef7528:	7274           	moveq #116,%d1
  ef752a:	2069 742c      	moveal %a1@(29740),%a0
  ef752e:	2069 6620      	moveal %a1@(26144),%a0
  ef7532:	6e65           	bgts 0xef7599
  ef7534:	6365           	blss 0xef759b
  ef7536:	7373 6172 792c 	mvsw %a3@(792c202d)@(00004f52),%d1
  ef753c:	202d 4f52 
  ef7540:	2d20           	movel %a0@-,%fp@-
  ef7542:	7072           	moveq #114,%d0
  ef7544:	6573           	bcss 0xef75b9
  ef7546:	7320           	mvsb %a0@-,%d1
  ef7548:	616e           	bsrs 0xef75b8
  ef754a:	7920           	mvsb %a0@-,%d4
  ef754c:	6b65           	bmis 0xef75b3
  ef754e:	7920           	mvsb %a0@-,%d4
  ef7550:	746f           	moveq #111,%d2
  ef7552:	2071 7569 742e 	moveal %a1@(0000742e)@(00000000),%a0
  ef7558:	0a0a           	05012
  ef755a:	0000 4e6f      	orib #111,%d0
  ef755e:	206c 6162      	moveal %a4@(24930),%a0
  ef7562:	656c           	bcss 0xef75d0
  ef7564:	2066           	moveal %fp@-,%a0
  ef7566:	6f75           	bles 0xef75dd
  ef7568:	6e64           	bgts 0xef75ce
  ef756a:	202d 2061      	movel %a5@(8289),%d0
  ef756e:	7474           	moveq #116,%d2
  ef7570:	656d           	bcss 0xef75df
  ef7572:	7074           	moveq #116,%d0
  ef7574:	696e           	bvss 0xef75e4
  ef7576:	6720           	beqs 0xef7598
  ef7578:	626f           	bhis 0xef75e9
  ef757a:	6f74           	bles 0xef75f0
  ef757c:	2061           	moveal %a1@-,%a0
  ef757e:	6e79           	bgts 0xef75f9
  ef7580:	7761           	mvsw %a1@-,%d3
  ef7582:	792e 0a00      	mvsb %fp@(2560),%d4
  ef7586:	4e6f           	movel %usp,%sp
  ef7588:	2063           	moveal %a3@-,%a0
  ef758a:	6f6e           	bles 0xef75fa
  ef758c:	7472           	moveq #114,%d2
  ef758e:	6f6c           	bles 0xef75fc
  ef7590:	6c65           	bges 0xef75f7
  ef7592:	7220           	moveq #32,%d1
  ef7594:	6174           	bsrs 0xef760a
  ef7596:	206d 6269      	moveal %a5@(25193),%a0
  ef759a:	6f20           	bles 0xef75bc
  ef759c:	2578 0a00 436f 	movel 0xa00,%a2@(17263)
  ef75a2:	7272           	moveq #114,%d1
  ef75a4:	7570 7420      	mvsw %a0@(00000020,%d7:w:4),%d2
  ef75a8:	6c61           	bges 0xef760b
  ef75aa:	6265           	bhis 0xef7611
  ef75ac:	6c0a           	bges 0xef75b8
  ef75ae:	0047 6976      	oriw #26998,%d7
  ef75b2:	696e           	bvss 0xef7622
  ef75b4:	6720           	beqs 0xef75d6
  ef75b6:	7570 2e2e      	mvsw %a0@(0000002e,%d2:l:8),%d2
  ef75ba:	2e0a           	movel %a2,%d7
  ef75bc:	0000 0000      	orib #0,%d0
  ef75c0:	8000           	orb %d0,%d0
  ef75c2:	0801 5082      	btst #-126,%d1
  ef75c6:	0009           	011
  ef75c8:	aad0           	0125320
  ef75ca:	ffdf           	0177737
  ef75cc:	0ddb           	bset %d6,%a3@+
  ef75ce:	b0e7           	cmpaw %sp@-,%a0
  ef75d0:	ff0d 7800      	cp1stb %d7,%a5,#5,#0
  ef75d4:	fc3f           	0176077
  ef75d6:	0fc3           	bset %d7,%d3
  ef75d8:	f00f           	0170017
  ef75da:	ff00 4510      	cp1stb %d4,%d0,#3,#272
  ef75de:	000d           	015
  ef75e0:	7805           	moveq #5,%d4
  ef75e2:	0000 1b0d      	orib #13,%d0
  ef75e6:	5ab0 f81f      	addql #5,%a0@(0000001f,%sp:l)
  ef75ea:	0fc0           	bset %d7,%d0
  ef75ec:	30f9 fd0f fdf0 	movew 0xfd0ffdf0,%a0@+
  ef75f2:	d579 0af9 f0f7 	addw %d2,0xaf9f0f7
  ef75f8:	cf0f           	abcd %sp@-,%sp@-
  ef75fa:	db70 e7e7 0f3e 	addw %d5,@(00000f3e)@(f006db00)
  ef7600:	f006 db00 
  ef7604:	36d7           	movew %sp@,%a3@+
  ef7606:	87df           	divsw %sp@+,%d3
  ef7608:	0015 4007      	orib #7,%a5@
  ef760c:	df0f           	addxb %sp@-,%sp@-
  ef760e:	bd50           	eorw %d6,%a0@
  ef7610:	1fdf           	017737
  ef7612:	856f b073      	orw %d2,%sp@(-20365)
  ef7616:	c707           	abcd %d7,%d3
  ef7618:	c1f0 780f      	mulsw %a0@(0000000f,%d7:l),%d0
  ef761c:	06bc b06b c307 	addil #-1335115001,%d4
  ef7622:	c7f0 6183 0600 	mulsw @(00000000,%d6:w)@(06003060),%d3
  ef7628:	3060 
  ef762a:	007f           	0177
  ef762c:	eff0 600b 0726 	bfins %d6,%a0@(ffffb07f)@(fffff707,%d0:w:8),0,11
  ef7632:	b07f f707 
  ef7636:	c1f0 7383 07c1 	mulsw @(00000000,%d7:w:2)@(07c1fe73),%d0
  ef763c:	fe73 
  ef763e:	ff07 7f70      	cp1stb %d7,%d7,#8,#368
  ef7642:	7003           	moveq #3,%d0
  ef7644:	0600 f072      	addib #114,%d0
  ef7648:	6906           	bvss 0xef7650
  ef764a:	7f10           	mvsb %a0@,%d7
  ef764c:	7f7f           	077577
  ef764e:	07b0 307a      	bclr %d3,%a0@(0000007a,%d3:w)
  ef7652:	af0a           	0127412
  ef7654:	0050 aad5      	oriw #-21803,%a0@
  ef7658:	0a00 50fc      	eorib #-4,%d0
  ef765c:	0000 000a      	orib #10,%d0
  ef7660:	eb00           	aslb #5,%d0
  ef7662:	007e           	0176
  ef7664:	70f7           	moveq #-9,%d0
  ef7666:	8f00           	sbcd %d0,%d7
  ef7668:	78f0           	moveq #-16,%d4
  ef766a:	e78f           	lsll #3,%d7
  ef766c:	0076 f0d1 8300 	oriw #-3887,%fp@(00000000,%a0:w:2)
  ef7672:	73fb f703 0560 	mvzw %pc@(0xef7674,%sp:w:8)@(05603056),%d1
  ef7678:	3056 
  ef767a:	01fe           	0776
  ef767c:	7ff0 c003      	mvzw %a0@(00000003,%a4:w),%d7
  ef7680:	0070 3007 0300 	oriw #12295,%a0@(00000000,%d0:w:2)
  ef7686:	78f0           	moveq #-16,%d4
  ef7688:	078f 1878      	movepw %d3,%sp@(6264)
  ef768c:	f187           	0170607
  ef768e:	8300           	sbcd %d0,%d1
  ef7690:	7ff0 2e0f      	mvzw %a0@(0000000f,%d2:l:8),%d7
  ef7694:	0060 7007      	oriw #28679,%a0@-
  ef7698:	5500           	subqb #2,%d0
  ef769a:	6690           	bnes 0xef762c
  ef769c:	07ff           	03777
  ef769e:	0075 5f87 ff0d 	oriw #24455,%a5@(00000000)@(00000000,%sp:l:8)
  ef76a4:	3cb0 8000      	movew %a0@(00000000,%a0:w),%fp@
  ef76a8:	0d3c b000      	btst %d6,#0
  ef76ac:	fc00 0000      	cp0nop #1
  ef76b0:	0001 0001      	orib #1,%d1
  ef76b4:	0002 0003      	orib #3,%d2
  ef76b8:	0405 0602      	subib #2,%d5
  ef76bc:	0708 0900      	movepw %a0@(2304),%d3
  ef76c0:	010a 0b0c      	movepw %a2@(2828),%d0
  ef76c4:	0d09 0e0a      	movepw %a1@(3594),%d6
  ef76c8:	0f04           	btst %d7,%d4
  ef76ca:	0d07           	btst %d6,%d7
  ef76cc:	1001           	moveb %d1,%d0
  ef76ce:	0011 1213      	orib #19,%a1@
  ef76d2:	1415           	moveb %a5@,%d2
  ef76d4:	0116           	btst %d0,%fp@
  ef76d6:	1718           	moveb %a0@+,%a3@-
  ef76d8:	191a           	moveb %a2@+,%a4@-
  ef76da:	001b 1c1d      	orib #29,%a3@+
  ef76de:	1c1e           	moveb %fp@+,%d6
  ef76e0:	0e1f           	07037
  ef76e2:	2021           	movel %a1@-,%d0
  ef76e4:	1a22           	moveb %a2@-,%d5
  ef76e6:	2324           	movel %a4@-,%a1@-
  ef76e8:	0016 1e01      	orib #1,%fp@
  ef76ec:	1625           	moveb %a5@-,%d3
  ef76ee:	2600           	movel %d0,%d3
  ef76f0:	2728 2915      	movel %a0@(10517),%a3@-
  ef76f4:	1b01           	moveb %d1,%a5@-
  ef76f6:	1b15           	moveb %a5@,%a5@-
  ef76f8:	2928 2700      	movel %a0@(9984),%a4@-
  ef76fc:	2a25           	movel %a5@-,%d5
  ef76fe:	2b16           	movel %fp@,%a5@-
  ef7700:	2c01           	movel %d1,%d6
  ef7702:	2c16           	movel %fp@,%d6
  ef7704:	2b25           	movel %a5@-,%a5@-
  ef7706:	2a00           	movel %d0,%d5
  ef7708:	2d01           	movel %d1,%fp@-
  ef770a:	0d2e 0200      	btst %d6,%fp@(512)
  ef770e:	022e 0d01 2d00 	andib #1,%fp@(11520)
  ef7714:	012f 0100      	btst %d0,%sp@(256)
  ef7718:	161e           	moveb %fp@+,%d3
  ef771a:	0116           	btst %d0,%fp@
  ef771c:	2526           	movel %fp@-,%a2@-
  ef771e:	002f 0016 1e16 	orib #22,%sp@(7702)
  ef7724:	0030 2728 1501 	orib #40,%a0@(00000000,%d1:w:4)@(00000000)
  ef772a:	1625           	moveb %a5@-,%d3
  ef772c:	2a31 001b      	movel %a1@(0000001b,%d0:w),%d5
  ef7730:	1c32 3334 3536 	moveb %a2@(3536372c)@(00000000,%d3:w:2),%d6
  ef7736:	372c 
  ef7738:	0038 012c 1e39 	orib #44,0x1e39
  ef773e:	010b 0037      	movepw %a3@(55),%d0
  ef7742:	101a           	moveb %a2@+,%d0
  ef7744:	3a27           	movew %sp@-,%d5
  ef7746:	2815           	movel %a5@,%d4
  ef7748:	0116           	btst %d0,%fp@
  ef774a:	253b 2f00      	movel %pc@(0xef774c,%d2:l:8),%a2@-
  ef774e:	1c3c 3d3e      	moveb #62,%d6
  ef7752:	303f           	030077
  ef7754:	0f40           	bchg %d7,%d0
  ef7756:	3f30 3e41      	movew %a0@(00000041,%d3:l:8),%sp@-
  ef775a:	1037 0028      	moveb %sp@(00000028,%d0:w),%d0
  ef775e:	2942 4332      	movel %d2,%a4@(17202)
  ef7762:	4423           	negb %a3@-
  ef7764:	2f28 0040      	movel %a0@(64),%sp@-
  ef7768:	2645           	moveal %d5,%a3
  ef776a:	1046           	010106
  ef776c:	3f30 3e47      	movew %a0@(00000047,%d3:l:8),%sp@-
  ef7770:	340a           	movew %a2,%d2
  ef7772:	001b 1625      	orib #37,%a3@+
  ef7776:	2a31 4849      	movel %a1@(00000049,%d4:l),%d5
  ef777a:	4a47           	tstw %d7
  ef777c:	4b10           	chkl %a0@,%d5
  ef777e:	3700           	movew %d0,%a3@-
  ef7780:	4c23           	046043
  ef7782:	414d           	040515
  ef7784:	274e 284f      	movel %fp,%a3@(10319)
  ef7788:	1538 0150      	moveb 0x150,%a2@-
  ef778c:	002d 3234 3651 	orib #52,%a5@(13905)
  ef7792:	0152           	bchg %d0,%a2@
  ef7794:	3234 362d      	movew %a4@(0000002d,%d3:w:8),%d1
  ef7798:	001c 533d      	orib #61,%a4@+
  ef779c:	474a           	043512
  ef779e:	5424           	addqb #2,%a4@-
  ef77a0:	3027           	movew %sp@-,%d0
  ef77a2:	281b           	movel %a3@+,%d4
  ef77a4:	5500           	subqb #2,%d0
  ef77a6:	161e           	moveb %fp@+,%d3
  ef77a8:	1600           	moveb %d0,%d3
  ef77aa:	161e           	moveb %fp@+,%d3
  ef77ac:	1600           	moveb %d0,%d3
  ef77ae:	161e           	moveb %fp@+,%d3
  ef77b0:	1600           	moveb %d0,%d3
  ef77b2:	161e           	moveb %fp@+,%d3
  ef77b4:	0116           	btst %d0,%fp@
  ef77b6:	2526           	movel %fp@-,%a2@-
  ef77b8:	0030 561b 1e57 	orib #27,%a0@(00000057,%d1:l:8)
  ef77be:	1e1b           	moveb %a3@+,%d7
  ef77c0:	5630 0007      	addqb #3,%a0@(00000007,%d0:w)
  ef77c4:	0007 0031      	orib #49,%d7
  ef77c8:	581e           	addqb #4,%fp@+
  ef77ca:	595a           	subqw #4,%a2@+
  ef77cc:	591e           	subqb #4,%fp@+
  ef77ce:	5831 002d      	addqb #4,%a1@(0000002d,%d0:w)
  ef77d2:	0a5b 5c27      	eoriw #23591,%a3@+
  ef77d6:	2815           	movel %a5@,%d4
  ef77d8:	0116           	btst %d0,%fp@
  ef77da:	0016 001c      	orib #28,%fp@
  ef77de:	0b5d           	bchg %d5,%a5@+
  ef77e0:	475e           	043536
  ef77e2:	5f60           	subqw #7,%a0@-
  ef77e4:	6131           	bsrs 0xef7817
  ef77e6:	2a23           	movel %a3@-,%d5
  ef77e8:	6200 0152      	bhiw 0xef793c
  ef77ec:	6332           	blss 0xef7820
  ef77ee:	640b           	bccs 0xef77fb
  ef77f0:	5c65           	addqw #6,%a5@-
  ef77f2:	3e66           	moveaw %fp@-,%sp
  ef77f4:	0067 6869      	oriw #26729,%sp@-
  ef77f8:	226a 6947      	moveal %a2@(26951),%a1
  ef77fc:	696b           	bvss 0xef7869
  ef77fe:	0040 6c6d      	oriw #27757,%d0
  ef7802:	4531 453b 6e1c 	chkl %a1@(6e1c0067,%d4:w:4)@(1a694741),%d2
  ef7808:	0067 1a69 4741 
  ef780e:	226f 0007      	moveal %sp@(7),%a1
  ef7812:	702a           	moveq #42,%d0
  ef7814:	3510           	movew %a0@,%a2@-
  ef7816:	352a 3b2f      	movew %a2@(15151),%a2@-
  ef781a:	0007 702a      	orib #42,%d7
  ef781e:	3510           	movew %a0@,%a2@-
  ef7820:	352a 5700      	movew %a2@(22272),%a2@-
  ef7824:	406c 6d45      	negxw %a4@(27973)
  ef7828:	3171 4772 5d73 	movew %a1@(5d731c00)@(00007447),%a0@(12103)
  ef782e:	1c00 7447 2f47 
  ef7834:	7400           	moveq #0,%d2
  ef7836:	0a01 0a00      	eorib #0,%d1
  ef783a:	0a01 5058      	eorib #88,%d1
  ef783e:	2a00           	movel %d0,%d5
  ef7840:	7522           	mvsb %a2@-,%d2
  ef7842:	7609           	moveq #9,%d3
  ef7844:	7757           	mvsw %sp@,%d3
  ef7846:	7879           	moveq #121,%d4
  ef7848:	7a7b           	moveq #123,%d5
  ef784a:	1a7c           	015174
  ef784c:	7d00           	mvsb %d0,%d6
  ef784e:	572a 3b2f      	subqb #3,%a2@(15151)
  ef7852:	007e           	0176
  ef7854:	7c4a           	moveq #74,%d6
  ef7856:	7f80           	mvzb %d0,%d7
  ef7858:	8182 8300      	unpk %d2,%d0,#-32000
  ef785c:	8485           	orl %d5,%d2
  ef785e:	8687           	orl %d7,%d3
  ef7860:	8889           	0104211
  ef7862:	8a8b           	0105213
  ef7864:	8c8d           	0106215
  ef7866:	8e3e           	0107076
  ef7868:	8f00           	sbcd %d0,%d7
  ef786a:	2d53 5c72      	movel %a3@,%fp@(23666)
  ef786e:	4765           	043545
  ef7870:	7036           	moveq #54,%d0
  ef7872:	2d00           	movel %d0,%fp@-
  ef7874:	6a34           	bpls 0xef78aa
  ef7876:	5d34 902a      	subqb #6,%a4@(0000002a,%a1:w)
  ef787a:	5700           	subqb #3,%d0
  ef787c:	2d53 5c72      	movel %a3@,%fp@(23666)
  ef7880:	4770           	043560
  ef7882:	910a           	subxb %a2@-,%a0@-
  ef7884:	2c37 925a      	movel %sp@(0000005a,%a1:w:2),%d6
  ef7888:	0067 2269      	oriw #8809,%sp@-
  ef788c:	6893           	bvcs 0xef7821
  ef788e:	7879           	moveq #121,%d4
  ef7890:	7a7b           	moveq #123,%d5
  ef7892:	1a7c           	015174
  ef7894:	7d00           	mvsb %d0,%d6
  ef7896:	4c5d           	046135
  ef7898:	8594           	orl %d2,%a4@
  ef789a:	551e           	subqb #2,%fp@+
  ef789c:	5956           	subqw #4,%fp@
  ef789e:	3f3e           	037476
  ef78a0:	696a           	bvss 0xef790c
  ef78a2:	002f 8a01 0a00 	orib #1,%sp@(2560)
  ef78a8:	7d85           	mvzb %d5,%d6
  ef78aa:	4b0b           	045413
  ef78ac:	0a00 9541      	eorib #65,%d0
  ef78b0:	3596 162c      	movew %fp@,%a2@(0000002c,%d1:w:8)
  ef78b4:	5000           	addqb #8,%d0
  ef78b6:	9798           	subl %d3,%a0@+
  ef78b8:	999a           	subl %d4,%a2@+
  ef78ba:	9b9c           	subl %d5,%a4@+
  ef78bc:	9d9e           	subl %d6,%fp@+
  ef78be:	0200 7d85      	andib #-123,%d0
  ef78c2:	709f           	moveq #-97,%d0
  ef78c4:	3651           	moveaw %a1@,%a3
  ef78c6:	0152           	bchg %d0,%a2@
  ef78c8:	3253           	moveaw %a3@,%a1
  ef78ca:	5c3e           	056076
  ef78cc:	6600 7d85      	bnew 0xeff653
  ef78d0:	7036           	moveq #54,%d0
  ef78d2:	5101           	subqb #8,%d1
  ef78d4:	2d00           	movel %d0,%fp@-
  ef78d6:	235c 2728      	movel %a4@+,%a1@(10024)
  ef78da:	1501           	moveb %d1,%a2@-
  ef78dc:	1625           	moveb %a5@-,%d3
  ef78de:	a023           	0120043
  ef78e0:	000f           	017
  ef78e2:	010f 0031      	movepw %sp@(49),%d0
  ef78e6:	2a25           	movel %a5@-,%d5
  ef78e8:	1601           	moveb %d1,%d3
  ef78ea:	1528 2700      	moveb %a0@(9984),%a2@-
  ef78ee:	7816           	moveq #22,%d4
  ef78f0:	7800           	moveq #0,%d4
  ef78f2:	502c a1a2      	addqb #8,%a4@(-24158)
  ef78f6:	6900 a300      	bvsw 0xef1bf8
  ef78fa:	4f15           	chkl %a5@,%d7
  ef78fc:	0159           	bchg %d0,%a1@+
  ef78fe:	1500           	moveb %d0,%a2@-
  ef7900:	1c1d           	moveb %a5@+,%d6
  ef7902:	33a4 a534 5ba6 	movew %a4@-,%a1@(5ba60045)@(00000000,%a2:w:4)
  ef7908:	0045 
  ef790a:	31a7 3148      	movew %sp@-,%a0@(00000000)
  ef790e:	494a           	044512
  ef7910:	47a8 a9aa      	chkw %a0@(-22102),%d3
  ef7914:	000a           	012
  ef7916:	465c           	notw %a4@+
  ef7918:	314b 340a      	movew %a3,%a0@(13322)
  ef791c:	0030 3f30 abac 	orib #48,@(00003d47)@(00000000,%a2:l:2)
  ef7922:	3d47 
  ef7924:	4aad ae00      	tstl %a5@(-20992)
  ef7928:	2d34 472f 312a 	movel %a4@(0000312a)@(731c0029,%d4:w:8),%fp@-
  ef792e:	731c 0029 
  ef7932:	af16           	0127426
  ef7934:	0a16 1e00      	eorib #0,%fp@
  ef7938:	b0ac 69a2      	cmpl %a4@(27042),%d0
  ef793c:	b131 0723 72b2 	eorb %d0,%a1@(000072b2,%d0:w:8)@(0710262a)
  ef7942:	0710 262a 
  ef7946:	942a 905b      	subb %a2@(-28581),%d2
  ef794a:	34b3 0001      	movew %a3@(00000001,%d0:w),%a2@
  ef794e:	001e 010a      	orib #10,%fp@+
  ef7952:	0027 00a4      	orib #-92,%sp@-
  ef7956:	275c 349f      	movel %a4@+,%a3@(13471)
  ef795a:	372c 31a7      	movew %a4@(12711),%a3@-
  ef795e:	311a           	movew %a2@+,%a0@-
  ef7960:	7609           	moveq #9,%d3
  ef7962:	7857           	moveq #87,%d4
  ef7964:	7879           	moveq #121,%d4
  ef7966:	7a7b           	moveq #123,%d5
  ef7968:	b400           	cmpb %d0,%d2
  ef796a:	1e01           	moveb %d1,%d7
  ef796c:	0a00 b5b6      	eorib #-74,%d0
  ef7970:	0db7 00b8      	bclr %d6,%sp@(ffffffb8,%d0:w)
  ef7974:	b934 b300      	eorb %d4,%a4@(00000000,%a3:w:2)
  ef7978:	1c53           	016123
  ef797a:	3d47 4b9f      	movew %d7,%fp@(19359)
  ef797e:	3700           	movew %d0,%a3@-
  ef7980:	babb 7c47      	cmpl %pc@(0xef79c9,%d7:l:4),%d5
  ef7984:	41bc 9331      	chkw #-27855,%d0
  ef7988:	bd00           	eorb %d6,%d0
  ef798a:	bebf           	0137277
  ef798c:	3d47 a8c0      	movew %d7,%fp@(-22336)
  ef7990:	4c30           	046060
  ef7992:	c100           	abcd %d0,%d0
  ef7994:	c2c3           	muluw %d3,%d1
  ef7996:	c42a 5700      	andb %a2@(22272),%d2
  ef799a:	3c34 7058      	movew %a4@(00000058,%d7:w),%d6
  ef799e:	1e59           	017131
  ef79a0:	565c           	addqw #3,%a4@+
  ef79a2:	3410           	movew %a0@,%d2
  ef79a4:	0050 1607      	oriw #5639,%a0@
  ef79a8:	16c5           	moveb %d5,%a3@+
  ef79aa:	c659           	andw %a1@+,%d3
  ef79ac:	00b3 345b 2400 	oril #878388224,@(00000000)@(00000000,%d7:l:4)
  ef79b2:	7d85 
  ef79b4:	7036           	moveq #54,%d0
  ef79b6:	5101           	subqb #8,%d1
  ef79b8:	00c7           	bitrev %d7
  ef79ba:	989c           	subl %a4@+,%d4
  ef79bc:	c802           	andb %d2,%d4
  ef79be:	00c9           	0311
  ef79c0:	4b9f           	chkw %sp@+,%d5
  ef79c2:	ca2c 1bcb      	andb %a4@(7115),%d5
  ef79c6:	533d           	051475
  ef79c8:	cc00           	andb %d0,%d6
  ef79ca:	7485           	moveq #-123,%d2
  ef79cc:	7036           	moveq #54,%d0
  ef79ce:	5101           	subqb #8,%d1
  ef79d0:	5016           	addqb #8,%fp@
  ef79d2:	cd57           	andw %d6,%sp@
  ef79d4:	9400           	subb %d0,%d2
  ef79d6:	2f7c ce29 1b2c 	movel #-836166868,%sp@(11215)
  ef79dc:	2bcf 
  ef79de:	a82f           	0124057
  ef79e0:	0056 1528      	oriw #5416,%fp@
  ef79e4:	151b           	moveb %a3@+,%a2@-
  ef79e6:	1528 1556      	moveb %a0@(5462),%a2@-
  ef79ea:	0001 5816      	orib #22,%d1
  ef79ee:	2516           	movel %fp@,%a2@-
  ef79f0:	2c16           	movel %fp@,%d6
  ef79f2:	2516           	movel %fp@,%a2@-
  ef79f4:	5800           	addqb #4,%d0
  ef79f6:	d0d1           	addaw %a1@,%a0
  ef79f8:	d2d3           	addaw %a3@,%a1
  ef79fa:	d400           	addb %d0,%d2
  ef79fc:	0006 1903      	orib #3,%d6
  ef7a00:	061f 0c7f      	addib #127,%sp@+
  ef7a04:	3366 1f3f      	movew %fp@-,%a1@(7999)
  ef7a08:	6666           	bnes 0xef7a70
  ef7a0a:	3e07           	movew %d7,%d7
  ef7a0c:	3f38 4445      	movew 0x4445,%sp@-
  ef7a10:	3903           	movew %d3,%a4@-
  ef7a12:	0c19 1a32      	cmpib #50,%a1@+
  ef7a16:	6107           	bsrs 0xef7a1f
  ef7a18:	0f18           	btst %d7,%a0@+
  ef7a1a:	1e77           	017167
  ef7a1c:	6361           	blss 0xef7a7f
  ef7a1e:	613f           	bsrs 0xef7a5f
  ef7a20:	1e18           	moveb %a0@+,%d7
  ef7a22:	1000           	moveb %d0,%d0
  ef7a24:	0103           	btst %d0,%d3
  ef7a26:	301c           	movew %a4@+,%d0
  ef7a28:	0e0f           	07017
  ef7a2a:	767f           	moveq #127,%d3
  ef7a2c:	0060 1110      	oriw #4368,%a0@-
  ef7a30:	3030 181f      	movew %a0@(0000001f,%d1:l),%d0
  ef7a34:	0236 4030 1f20 	andib #48,%fp@(00004000,%d1:l:8)
  ef7a3a:	4000 
  ef7a3c:	0f60           	bchg %d7,%a0@-
  ef7a3e:	0509 2120      	movepw %a1@(8480),%d2
  ef7a42:	3160 676f      	movew %a0@-,%a0@(26479)
  ef7a46:	7070           	moveq #112,%d0
  ef7a48:	1f00           	moveb %d0,%sp@-
  ef7a4a:	0001 040d      	orib #13,%d1
  ef7a4e:	0b11           	btst %d5,%a1@
  ef7a50:	3f3c 0178      	movew #376,%sp@-
  ef7a54:	3807           	movew %d7,%d4
  ef7a56:	0139 2030 676f 	btst %d0,0x2030676f
  ef7a5c:	6c67           	bges 0xef7ac5
  ef7a5e:	0f09 1020      	movepw %a1@(4128),%d7
  ef7a62:	e0ff           	0160377
  ef7a64:	6060           	bras 0xef7ac6
  ef7a66:	7fff           	077777
  ef7a68:	1020           	moveb %a0@-,%d0
  ef7a6a:	18fe           	014376
  ef7a6c:	3061           	moveaw %a1@-,%a0
  ef7a6e:	2018           	movel %a0@+,%d0
  ef7a70:	f0f0           	0170360
  ef7a72:	636c           	blss 0xef7ae0
  ef7a74:	7c6e           	moveq #110,%d6
  ef7a76:	6763           	beqs 0xef7adb
  ef7a78:	60f0           	bras 0xef7a6a
  ef7a7a:	e059           	rorw #8,%d1
  ef7a7c:	4d4e           	046516
  ef7a7e:	44e4           	movew %a4@-,%ccr
  ef7a80:	c060           	andw %a0@-,%d0
  ef7a82:	7078           	moveq #120,%d0
  ef7a84:	584c           	addqw #4,%a4
  ef7a86:	4647           	notw %d7
  ef7a88:	4341           	041501
  ef7a8a:	40e0           	movew %sr,%a0@-
  ef7a8c:	3738 237f      	movew 0x237f,%a3@-
  ef7a90:	70e0           	moveq #-32,%d0
  ef7a92:	19fe           	014776
  ef7a94:	6676           	bnes 0xef7b0c
  ef7a96:	7733 373b 3b38 	mvsb %a3@(3b38181b,%d3:w:8)@(31ff031c),%d3
  ef7a9c:	181b 31ff 031c 
  ef7aa2:	1ee0           	moveb %a0@-,%sp@+
  ef7aa4:	7078           	moveq #120,%d0
  ef7aa6:	4f0f           	047417
  ef7aa8:	3139 1e04 1f3f 	movew 0x1e041f3f,%a0@-
  ef7aae:	4079 f1dd 6eef 	negxw 0xf1dd6eef
  ef7ab4:	2779 ef71 70f0 	movel 0xef7170f0,%a3@(3857)
  ef7aba:	0f11 
  ef7abc:	3800           	movew %d0,%d4
  ef7abe:	7334 380c      	mvsb %a4@(0000000c,%d3:l),%d1
  ef7ac2:	0eff           	07377
  ef7ac4:	3bf8           	035770
  ef7ac6:	1d0b           	016413
  ef7ac8:	f108           	0170410
  ef7aca:	4138 1c3e      	chkl 0x1c3e,%d0
  ef7ace:	3667           	moveaw %sp@-,%a3
  ef7ad0:	4300           	chkl %d0,%d1
  ef7ad2:	0083 6fcc 008c 	oril #1875640460,%d3
  ef7ad8:	e60c           	lsrb #3,%d4
  ef7ada:	86c8           	0103310
  ef7adc:	800c           	0100014
  ef7ade:	22c0           	movel %d0,%a1@+
  ef7ae0:	8c00           	orb %d0,%d6
  ef7ae2:	6e8e           	bgts 0xef7a72
  ef7ae4:	600c           	bras 0xef7af2
  ef7ae6:	8800           	orb %d0,%d4
  ef7ae8:	00ee           	0356
  ef7aea:	608c           	bras 0xef7a78
  ef7aec:	c880           	andl %d0,%d4
  ef7aee:	00c2           	bitrev %d2
  ef7af0:	ce6e c488      	andw %fp@(-15224),%d7
  ef7af4:	80c6           	divuw %d6,%d0
  ef7af6:	8ce4           	divuw %a4@-,%d6
  ef7af8:	e480           	asrl #2,%d0
  ef7afa:	000c           	014
  ef7afc:	60c0           	bras 0xef7abe
  ef7afe:	08ec c62a aee0 	bset #42,%a4@(-20768)
  ef7b04:	84f0 8c88      	divuw %a0@(ffffff88,%a0:l:4),%d2
  ef7b08:	6240           	bhis 0xef7b4a
  ef7b0a:	4f66           	047546
  ef7b0c:	fe00 0008      	cp1ldb %d0,%d0,#1,#8
  ef7b10:	e776           	roxlw %d3,%d6
  ef7b12:	666f           	bnes 0xef7b83
  ef7b14:	7222           	moveq #34,%d1
  ef7b16:	2222           	movel %a2@-,%d1
  ef7b18:	2ae3           	movel %a3@-,%a5@+
  ef7b1a:	8490           	orl %a0@,%d2
  ef7b1c:	0e0f           	07017
  ef7b1e:	2244           	moveal %d4,%a1
  ef7b20:	4c88           	046210
  ef7b22:	208f           	movel %sp,%a0@
  ef7b24:	cce0           	muluw %a0@-,%d6
  ef7b26:	6c86           	bges 0xef7aae
  ef7b28:	e67c           	rorw %d3,%d4
  ef7b2a:	202e ece7      	movel %fp@(-4889),%d0
  ef7b2e:	8c8c           	0106214
  ef7b30:	802e ef8c      	orb %fp@(-4212),%d0
  ef7b34:	c247           	andw %d7,%d1
  ef7b36:	4f08           	047410
  ef7b38:	f0c2 26cc 8000 	pbls 0x27bbfb3a
  ef7b3e:	0000 0000      	orib #0,%d0
  ef7b42:	0003 c000      	orib #0,%d3
  ef7b46:	0000 0000      	orib #0,%d0
  ef7b4a:	000f           	017
  ef7b4c:	f000           	0170000
  ef7b4e:	0000 0000      	orib #0,%d0
  ef7b52:	001f f800      	orib #0,%sp@+
  ef7b56:	0000 0000      	orib #0,%d0
  ef7b5a:	003f           	077
  ef7b5c:	fc00 0000      	cp0nop #1
  ef7b60:	0000 003f      	orib #63,%d0
  ef7b64:	fe00 0000      	cp1nop #1
  ef7b68:	0000 007f      	orib #127,%d0
  ef7b6c:	ff00 0000      	cp1stb %d0,%d0,#1,#0
  ef7b70:	0000 007e      	orib #126,%d0
  ef7b74:	ff80 0000      	cp1stl %d0,%d0,#1,#0
  ef7b78:	0000 027f      	orib #127,%d0
  ef7b7c:	7fc0           	mvzw %d0,%d7
  ef7b7e:	0000 0000      	orib #0,%d0
  ef7b82:	073f           	03477
  ef7b84:	bfe0           	cmpal %a0@-,%sp
  ef7b86:	0000 0000      	orib #0,%d0
  ef7b8a:	0fbf           	07677
  ef7b8c:	dff0 0000      	addal %a0@(00000000,%d0:w),%sp
  ef7b90:	0000 1fdf      	orib #-33,%d0
  ef7b94:	eff8 0000 0000 	bfins %d0,0x0,0,0
  ef7b9a:	2fef           	027757
  ef7b9c:	f7fc           	0173774
  ef7b9e:	0000 0000      	orib #0,%d0
  ef7ba2:	77f7 fbfe 0000 	mvzw @(00000000)@(fffffbfb),%d3
  ef7ba8:	0000 fbfb 
  ef7bac:	fdff           	0176777
  ef7bae:	0000 0001      	orib #1,%d0
  ef7bb2:	fdfd           	0176775
  ef7bb4:	feff           	0177377
  ef7bb6:	0000 0001      	orib #1,%d0
  ef7bba:	fefe           	0177376
  ef7bbc:	ff7e           	0177576
  ef7bbe:	c000           	andb %d0,%d0
  ef7bc0:	0006 ff7f      	orib #127,%d6
  ef7bc4:	7fbd           	077675
  ef7bc6:	e000           	asrb #8,%d0
  ef7bc8:	000f           	017
  ef7bca:	7fbf           	077677
  ef7bcc:	bfdb           	cmpal %a3@+,%sp
  ef7bce:	f000           	0170000
  ef7bd0:	001f bfdf      	orib #-33,%sp@+
  ef7bd4:	dfe7           	addal %sp@-,%sp
  ef7bd6:	f800           	0174000
  ef7bd8:	003f           	077
  ef7bda:	dfef efef      	addal %sp@(-4113),%sp
  ef7bde:	f400           	0172000
  ef7be0:	007f           	0177
  ef7be2:	aff7           	0127767
  ef7be4:	f7df           	0173737
  ef7be6:	ee00           	asrb #7,%d0
  ef7be8:	00ff           	0377
  ef7bea:	77fb f3bf df00 	mvzw %zpc@(df0001fe)@(fbfdf97f,%sp:w:2),%d3
  ef7bf0:	01fe fbfd f97f 
  ef7bf6:	bf80           	eorl %d7,%d0
  ef7bf8:	03fd           	01775
  ef7bfa:	fdff           	0176777
  ef7bfc:	f8ff           	0174377
  ef7bfe:	7f00           	mvsb %d0,%d7
  ef7c00:	07fb           	03773
  ef7c02:	f8ff           	0174377
  ef7c04:	f9fe           	0174776
  ef7c06:	fe00 0ff7      	cp1ldb %d0,%d0,#8,#503
  ef7c0a:	f07f           	0170177
  ef7c0c:	f3fd           	0171775
  ef7c0e:	fce0           	0176340
  ef7c10:	1fef           	017757
  ef7c12:	e73f           	rolb %d3,%d7
  ef7c14:	f7fb           	0173773
  ef7c16:	fbf8           	0175770
  ef7c18:	3fdf           	037737
  ef7c1a:	dfdf           	addal %sp@+,%sp
  ef7c1c:	eff7           	0167767
  ef7c1e:	f7fc           	0173774
  ef7c20:	7fbf           	077677
  ef7c22:	bfe7           	cmpal %sp@-,%sp
  ef7c24:	9fef effe      	subal %sp@(-4098),%sp
  ef7c28:	7f7f           	077577
  ef7c2a:	7fe0           	mvzw %a0@-,%d7
  ef7c2c:	1fdf           	017737
  ef7c2e:	dffe           	0157776
  ef7c30:	fefe           	0177376
  ef7c32:	fff0           	0177760
  ef7c34:	3fbf           	037677
  ef7c36:	bfff           	0137777
  ef7c38:	fdfd           	0176775
  ef7c3a:	fff0           	0177760
  ef7c3c:	3f7f           	037577
  ef7c3e:	7fff           	077777
  ef7c40:	fffb           	0177773
  ef7c42:	fbf0           	0175760
  ef7c44:	3ffe           	037776
  ef7c46:	ff7f           	0177577
  ef7c48:	fff7           	0177767
  ef7c4a:	f7f0           	0173760
  ef7c4c:	3ffd           	037775
  ef7c4e:	feff           	0177377
  ef7c50:	7fef efe0      	mvzw %sp@(-4128),%d7
  ef7c54:	1ffb           	017773
  ef7c56:	fdfe           	0176776
  ef7c58:	7fdf           	mvzw %sp@+,%d7
  ef7c5a:	dfe7           	addal %sp@-,%sp
  ef7c5c:	9ff7 fbfe 3fbf 	subal @(3fbfbfdf)@(ffffefef),%sp
  ef7c62:	bfdf efef 
  ef7c66:	f7fc           	0173774
  ef7c68:	0e7f           	07177
  ef7c6a:	7fbf           	077677
  ef7c6c:	f39f           	0171637
  ef7c6e:	eff8 00fe ff3f 	bfins %d0,0xffffff3f,3,%d6
  ef7c74:	f83f           	0174077
  ef7c76:	dff0 01fd fe7f 	addal @(fe7ffc7f)@(00000000),%sp
  ef7c7c:	fc7f 
  ef7c7e:	bfe0           	cmpal %a0@-,%sp
  ef7c80:	03fb           	01773
  ef7c82:	fc7f           	0176177
  ef7c84:	feff           	0177377
  ef7c86:	7fc0           	mvzw %d0,%d7
  ef7c88:	01f7 fa7e      	bset %d0,%sp@(0000007e,%sp:l:2)
  ef7c8c:	ff7e           	0177576
  ef7c8e:	ff80 00ef      	cp1stl %d0,%d0,#1,#239
  ef7c92:	f73f           	0173477
  ef7c94:	7fbd           	077675
  ef7c96:	ff00 005f      	cp1stb %d0,%d0,#1,#95
  ef7c9a:	efbf           	roll %d7,%d7
  ef7c9c:	bfdb           	cmpal %a3@+,%sp
  ef7c9e:	fe00 003f      	cp1ldb %d0,%d0,#1,#63
  ef7ca2:	dfdf           	addal %sp@+,%sp
  ef7ca4:	dfe7           	addal %sp@-,%sp
  ef7ca6:	fc00 001f      	cp0ldb %d0,%d0,#1,#31
  ef7caa:	afef           	0127757
  ef7cac:	eff7           	0167767
  ef7cae:	f800           	0174000
  ef7cb0:	000f           	017
  ef7cb2:	77f7 f7fb f000 	mvzw @(f0000006)@(fbfbfbfd),%d3
  ef7cb8:	0006 fbfb fbfd 
  ef7cbe:	e000           	asrb #8,%d0
  ef7cc0:	0001 fdfd      	orib #-3,%d1
  ef7cc4:	fdfe           	0176776
  ef7cc6:	c000           	andb %d0,%d0
  ef7cc8:	0001 fefe      	orib #-2,%d1
  ef7ccc:	feff           	0177377
  ef7cce:	0000 0000      	orib #0,%d0
  ef7cd2:	ff7f           	0177577
  ef7cd4:	7f7f           	077577
  ef7cd6:	0000 0000      	orib #0,%d0
  ef7cda:	7fbf           	077677
  ef7cdc:	bfbe           	0137676
  ef7cde:	0000 0000      	orib #0,%d0
  ef7ce2:	3fdf           	037737
  ef7ce4:	dfdc           	addal %a4@+,%sp
  ef7ce6:	0000 0000      	orib #0,%d0
  ef7cea:	1fef           	017757
  ef7cec:	efe8 0000 0000 	bfins %d0,%a0@(0),0,0
  ef7cf2:	0ff7 f7f0 0000 	bset %d7,@(00000000)
  ef7cf8:	0000 
  ef7cfa:	07fb           	03773
  ef7cfc:	fbe0           	0175740
  ef7cfe:	0000 0000      	orib #0,%d0
  ef7d02:	03fd           	01775
  ef7d04:	f9c0           	0174700
  ef7d06:	0000 0000      	orib #0,%d0
  ef7d0a:	01fe           	0776
  ef7d0c:	fc80 0000      	cp0nop #1
  ef7d10:	0000 00ff      	orib #-1,%d0
  ef7d14:	fc00 0000      	cp0nop #1
  ef7d18:	0000 007f      	orib #127,%d0
  ef7d1c:	fc00 0000      	cp0nop #1
  ef7d20:	0000 003f      	orib #63,%d0
  ef7d24:	f800 0000      	tblub %d0,%d0,%d0
  ef7d28:	0000 001f      	orib #31,%d0
  ef7d2c:	f800 0000      	tblub %d0,%d0,%d0
  ef7d30:	0000 000f      	orib #15,%d0
  ef7d34:	f000           	0170000
  ef7d36:	0000 0000      	orib #0,%d0
  ef7d3a:	0003 c000      	orib #0,%d3
  ef7d3e:	0000 000e      	orib #14,%d0
  ef7d42:	0000 000e      	orib #14,%d0
  ef7d46:	2000           	movel %d0,%d0
  ef7d48:	0000 0000      	orib #0,%d0
  ef7d4c:	00ef           	0357
  ef7d4e:	3e6e 00ef      	moveaw %fp@(239),%sp
  ef7d52:	3f48 00ef      	movew %a0,%sp@(239)
  ef7d56:	3e24           	movew %a4@-,%d7
  ef7d58:	0008           	010
  ef7d5a:	8000           	orb %d0,%d0
  ef7d5c:	0008           	010
  ef7d5e:	c000           	andb %d0,%d0
  ef7d60:	0000 0000      	orib #0,%d0
  ef7d64:	00ef           	0357
  ef7d66:	44cc           	move %d4,%ccr
  ef7d68:	00ef           	0357
  ef7d6a:	4584           	chkw %d4,%d2
  ef7d6c:	00ef           	0357
  ef7d6e:	4196           	chkw %fp@,%d0
  ef7d70:	6965           	bvss 0xef7dd7
  ef7d72:	3a20           	movew %a0@-,%d5
  ef7d74:	6361           	blss 0xef7dd7
  ef7d76:	6e6e           	bgts 0xef7de6
  ef7d78:	6f74           	bles 0xef7dee
  ef7d7a:	2069 6e69      	moveal %a1@(28265),%a0
  ef7d7e:	7469           	moveq #105,%d2
  ef7d80:	616c           	bsrs 0xef7dee
  ef7d82:	697a           	bvss 0xef7dfe
  ef7d84:	650a           	bcss 0xef7d90
  ef7d86:	0069 653a 2045 	oriw #25914,%a1@(8261)
  ef7d8c:	7468           	moveq #104,%d2
  ef7d8e:	6572           	bcss 0xef7e02
  ef7d90:	6e65           	bgts 0xef7df7
  ef7d92:	7420           	moveq #32,%d2
  ef7d94:	6361           	blss 0xef7df7
  ef7d96:	626c           	bhis 0xef7e04
  ef7d98:	6520           	bcss 0xef7dba
  ef7d9a:	7072           	moveq #114,%d0
  ef7d9c:	6f62           	bles 0xef7e00
  ef7d9e:	6c65           	bges 0xef7e05
  ef7da0:	6d0a           	blts 0xef7dac
  ef7da2:	0000 0000      	orib #0,%d0
  ef7da6:	0040 0000      	oriw #0,%d0
  ef7daa:	0044 0000      	oriw #0,%d4
  ef7dae:	0048           	0110
  ef7db0:	0000 004c      	orib #76,%d0
  ef7db4:	6970           	bvss 0xef7e26
  ef7db6:	3a20           	movew %a0@-,%d5
  ef7db8:	6572           	bcss 0xef7e2c
  ef7dba:	726f           	moveq #111,%d1
  ef7dbc:	7220           	moveq #32,%d1
  ef7dbe:	2578 0a00 0000 	movel 0xa00,%a2@(0)
  ef7dc4:	0000 00a0      	orib #-96,%d0
  ef7dc8:	0000 00a2      	orib #-94,%d0
  ef7dcc:	6d74           	blts 0xef7e42
  ef7dce:	3a20           	movew %a0@-,%d5
  ef7dd0:	6572           	bcss 0xef7e44
  ef7dd2:	726f           	moveq #111,%d1
  ef7dd4:	7220           	moveq #32,%d1
  ef7dd6:	3078 2578      	moveaw 0x2578,%a0
  ef7dda:	0a00 6d74      	eorib #116,%d0
  ef7dde:	3a20           	movew %a0@-,%d5
  ef7de0:	636f           	blss 0xef7e51
  ef7de2:	6e74           	bgts 0xef7e58
  ef7de4:	726f           	moveq #111,%d1
  ef7de6:	6c6c           	bges 0xef7e54
  ef7de8:	6572           	bcss 0xef7e5c
  ef7dea:	2064           	moveal %a4@-,%a0
  ef7dec:	6f65           	bles 0xef7e53
  ef7dee:	7320           	mvsb %a0@-,%d1
  ef7df0:	6e6f           	bgts 0xef7e61
  ef7df2:	7420           	moveq #32,%d2
  ef7df4:	696e           	bvss 0xef7e64
  ef7df6:	6974           	bvss 0xef7e6c
  ef7df8:	6961           	bvss 0xef7e5b
  ef7dfa:	6c69           	bges 0xef7e65
  ef7dfc:	7a65           	moveq #101,%d5
  ef7dfe:	0a00 6d74      	eorib #116,%d0
  ef7e02:	3a20           	movew %a0@-,%d5
  ef7e04:	756e 6974      	mvsw %fp@(26996),%d2
  ef7e08:	206e 6f74      	moveal %fp@(28532),%a0
  ef7e0c:	2072 6561 6479 	moveal %a2@(00006479)@(00000000),%a0
  ef7e12:	0a00 ffff      	eorib #-1,%d0
  ef7e16:	ffff           	0177777
  ef7e18:	ffff           	0177777
  ef7e1a:	0000 5808      	orib #8,%d0
  ef7e1e:	006e 643a 2065 	oriw #25658,%fp@(8293)
  ef7e24:	7272           	moveq #114,%d1
  ef7e26:	2025           	movel %a5@-,%d0
  ef7e28:	7820           	moveq #32,%d4
  ef7e2a:	626e           	bhis 0xef7e9a
  ef7e2c:	2025           	movel %a5@-,%d0
  ef7e2e:	640a           	bccs 0xef7e3a
  ef7e30:	002d 0800 3d08 	orib #0,%a5@(15624)
  ef7e36:	003f           	077
  ef7e38:	0800 6e64      	btst #100,%d0
  ef7e3c:	3a20           	movew %a0@-,%d5
  ef7e3e:	6e6f           	bgts 0xef7eaf
  ef7e40:	2066           	moveal %fp@-,%a0
  ef7e42:	696c           	bvss 0xef7eb0
  ef7e44:	6520           	bcss 0xef7e66
  ef7e46:	7365           	mvsw %a5@-,%d1
  ef7e48:	7276           	moveq #118,%d1
  ef7e4a:	6572           	bcss 0xef7ebe
  ef7e4c:	2c20           	movel %a0@-,%d6
  ef7e4e:	6769           	beqs 0xef7eb9
  ef7e50:	7669           	moveq #105,%d3
  ef7e52:	6e67           	bgts 0xef7ebb
  ef7e54:	2075 702e      	moveal %a5@(0000002e,%d7:w),%a0
  ef7e58:	0a00 0000      	eorib #0,%d0
  ef7e5c:	0000 ee40      	orib #64,%d0
  ef7e60:	0000 ee48      	orib #72,%d0
  ef7e64:	7879           	moveq #121,%d4
  ef7e66:	3a20           	movew %a0@-,%d5
  ef7e68:	6572           	bcss 0xef7edc
  ef7e6a:	726f           	moveq #111,%d1
  ef7e6c:	7220           	moveq #32,%d1
  ef7e6e:	2578 2063 6d64 	movel 0x2063,%a2@(28004)
  ef7e74:	2025           	movel %a5@-,%d0
  ef7e76:	780a           	moveq #10,%d4
  ef7e78:	0000 0000      	orib #0,%d0
  ef7e7c:	7365           	mvsw %a5@-,%d1
  ef7e7e:	7175 656e 6365 	mvsw %a5@(00006365)@(00002065),%d0
  ef7e84:	2065 
  ef7e86:	7272           	moveq #114,%d1
  ef7e88:	6f72           	bles 0xef7efc
  ef7e8a:	0000 7363      	orib #99,%d0
  ef7e8e:	7369 3a20      	mvsw %a1@(14880),%d1
  ef7e92:	2573 0a00 6275 	movel %a3@(00000000,%d0:l:2),%a2@(25205)
  ef7e98:	7320           	mvsb %a0@-,%d1
  ef7e9a:	636f           	blss 0xef7f0b
  ef7e9c:	6e74           	bgts 0xef7f12
  ef7e9e:	696e           	bvss 0xef7f0e
  ef7ea0:	756f 7573      	mvsw %sp@(30067),%d2
  ef7ea4:	6c79           	bges 0xef7f1f
  ef7ea6:	2062           	moveal %a2@-,%a0
  ef7ea8:	7573 7900      	mvsw %a3@(00000000,%d7:l),%d2
  ef7eac:	6361           	blss 0xef7f0f
  ef7eae:	6e6e           	bgts 0xef7f1e
  ef7eb0:	6f74           	bles 0xef7f26
  ef7eb2:	2073 656c 6563 	moveal %a3@(00006563)@(00000000),%a0
  ef7eb8:	7400           	moveq #0,%d2
  ef7eba:	696e           	bvss 0xef7f2a
  ef7ebc:	7661           	moveq #97,%d3
  ef7ebe:	6c69           	bges 0xef7f29
  ef7ec0:	6420           	bccs 0xef7ee2
  ef7ec2:	6d65           	blts 0xef7f29
  ef7ec4:	7373 6167 6500 	mvsw %a3@(00006500)@(74696d65),%d1
  ef7eca:	7469 6d65 
  ef7ece:	6f75           	bles 0xef7f45
  ef7ed0:	7400           	moveq #0,%d2
  ef7ed2:	6275           	bhis 0xef7f49
  ef7ed4:	7320           	mvsb %a0@-,%d1
  ef7ed6:	6572           	bcss 0xef7f4a
  ef7ed8:	726f           	moveq #111,%d1
  ef7eda:	7200           	moveq #0,%d1
  ef7edc:	00ee 2800 00f8 	chk2b %fp@(248),%d2
  ef7ee2:	4000           	negxb %d0
  ef7ee4:	0000 0000      	orib #0,%d0
  ef7ee8:	7364           	mvsw %a4@-,%d1
  ef7eea:	3a20           	movew %a0@-,%d5
  ef7eec:	6261           	bhis 0xef7f4f
  ef7eee:	6420           	bccs 0xef7f10
  ef7ef0:	6c61           	bges 0xef7f53
  ef7ef2:	6265           	bhis 0xef7f59
  ef7ef4:	6c0a           	bges 0xef7f00
  ef7ef6:	0073 643a 2073 	oriw #25658,%a3@(00000073,%d2:w)
  ef7efc:	6373           	blss 0xef7f71
  ef7efe:	6920           	bvss 0xef7f20
  ef7f00:	2573 0a00 7365 	movel %a3@(00000000,%d0:l:2),%a2@(29541)
  ef7f06:	6e73           	bgts 0xef7f7b
  ef7f08:	6520           	bcss 0xef7f2a
  ef7f0a:	6661           	bnes 0xef7f6d
  ef7f0c:	696c           	bvss 0xef7f7a
  ef7f0e:	6564           	bcss 0xef7f74
  ef7f10:	0064 6973      	oriw #26995,%a4@-
  ef7f14:	6b20           	bmis 0xef7f36
  ef7f16:	6275           	bhis 0xef7f8d
  ef7f18:	7379 0073 643a 	mvsw 0x73643a,%d1
  ef7f1e:	2064           	moveal %a4@-,%a0
  ef7f20:	6d61           	blts 0xef7f83
  ef7f22:	2063           	moveal %a3@-,%a0
  ef7f24:	6f75           	bles 0xef7f9b
  ef7f26:	6e74           	bgts 0xef7f9c
  ef7f28:	2069 7320      	moveal %a1@(29472),%a0
  ef7f2c:	2564 2077      	movel %a4@-,%a2@(8311)
  ef7f30:	616e           	bsrs 0xef7fa0
  ef7f32:	7465           	moveq #101,%d2
  ef7f34:	6420           	bccs 0xef7f56
  ef7f36:	2564 0a00      	movel %a4@-,%a2@(2560)
  ef7f3a:	7364           	mvsw %a4@-,%d1
  ef7f3c:	3a20           	movew %a0@-,%d5
  ef7f3e:	6572           	bcss 0xef7fb2
  ef7f40:	726f           	moveq #111,%d1
  ef7f42:	7200           	moveq #0,%d1
  ef7f44:	2025           	movel %a5@-,%d0
  ef7f46:	7800           	moveq #0,%d4
  ef7f48:	0a00 0000      	eorib #0,%d0
  ef7f4c:	00ee 2800 00f8 	chk2b %fp@(248),%d2
  ef7f52:	4000           	negxb %d0
  ef7f54:	0000 0000      	orib #0,%d0
  ef7f58:	7374 3a20      	mvsw %a4@(00000020,%d3:l:2),%d1
  ef7f5c:	7365           	mvsw %a5@-,%d1
  ef7f5e:	6e73           	bgts 0xef7fd3
  ef7f60:	6520           	bcss 0xef7f82
  ef7f62:	6572           	bcss 0xef7fd6
  ef7f64:	726f           	moveq #111,%d1
  ef7f66:	720a           	moveq #10,%d1
  ef7f68:	0073 743a 2065 	oriw #29754,%a3@(00000065,%d2:w)
  ef7f6e:	7272           	moveq #114,%d1
  ef7f70:	6f72           	bles 0xef7fe4
  ef7f72:	2025           	movel %a5@-,%d0
  ef7f74:	780a           	moveq #10,%d4
  ef7f76:	0073 743a 2073 	oriw #29754,%a3@(00000073,%d2:w)
  ef7f7c:	686f           	bvcs 0xef7fed
  ef7f7e:	7274           	moveq #116,%d1
  ef7f80:	2074 7261      	moveal %a4@(00000061,%d7:w:2),%a0
  ef7f84:	6e73           	bgts 0xef7ff9
  ef7f86:	6665           	bnes 0xef7fed
  ef7f88:	720a           	moveq #10,%d1
  ef7f8a:	0000 ee60      	orib #96,%d0
  ef7f8e:	ee68           	lsrw %d7,%d0
  ef7f90:	0000 0000      	orib #0,%d0
  ef7f94:	7874           	moveq #116,%d4
  ef7f96:	2068 6172      	moveal %a0@(24946),%a0
  ef7f9a:	6420           	bccs 0xef7fbc
  ef7f9c:	6572           	bcss 0xef8010
  ef7f9e:	7220           	moveq #32,%d1
  ef7fa0:	2578 0a00 4028 	movel 0xa00,%a2@(16424)
  ef7fa6:	2329 6263      	movel %a1@(25187),%a1@-
  ef7faa:	6d70           	blts 0xef801c
  ef7fac:	2e63           	moveal %a3@-,%sp
  ef7fae:	2031 2e31      	movel %a1@(00000031,%d2:l:8),%d0
  ef7fb2:	2038 342f      	movel 0x342f,%d0
  ef7fb6:	3132 2f32 3020 	movew %a2@(3020534d,%d2:l:8)@(00004900),%a0@-
  ef7fbc:	534d 4900 
  ef7fc0:	ffff           	0177777
  ef7fc2:	ffff           	0177777
  ef7fc4:	ffff           	0177777
  ef7fc6:	ffff           	0177777
  ef7fc8:	ffff           	0177777
  ef7fca:	ffff           	0177777
  ef7fcc:	ffff           	0177777
  ef7fce:	ffff           	0177777
  ef7fd0:	ffff           	0177777
  ef7fd2:	ffff           	0177777
  ef7fd4:	ffff           	0177777
  ef7fd6:	ffff           	0177777
  ef7fd8:	ffff           	0177777
  ef7fda:	ffff           	0177777
  ef7fdc:	ffff           	0177777
  ef7fde:	ffff           	0177777
  ef7fe0:	ffff           	0177777
  ef7fe2:	ffff           	0177777
  ef7fe4:	ffff           	0177777
  ef7fe6:	ffff           	0177777
  ef7fe8:	ffff           	0177777
  ef7fea:	ffff           	0177777
  ef7fec:	ffff           	0177777
  ef7fee:	ffff           	0177777
  ef7ff0:	ffff           	0177777
  ef7ff2:	ffff           	0177777
  ef7ff4:	ffff           	0177777
  ef7ff6:	ffff           	0177777
  ef7ff8:	ffff           	0177777
  ef7ffa:	ffff           	0177777
  ef7ffc:	ffff           	0177777
  ef7ffe:	ffff           	0177777
